(dp1
I1
(dp2
S'amr2jamr'
p3
(dp4
S'p2'
p5
S'0.0.1.1.0.0'
p6
sS'b'
S'0.0.1'
p7
sS'd'
S'0.0.1.1.0.0.0.1'
p8
sS'none1'
p9
S'0.0.1.1.0.0.0.0.0.0'
p10
sS'none0'
p11
S'0.0.0'
p12
sS'h'
S'0.0.1.1.0.0.0'
p13
sS't2'
p14
S'0.0.1.1.0'
p15
sS'o'
S'0.0.1.1.0.0.0.0'
p16
sS'n'
S'0.1'
p17
sS'q'
S'0'
sS'p'
S'0.0'
p18
sS't'
S'0.0.1.1'
p19
sS'b2'
p20
S'0.0.1.2'
p21
sS'w'
S'0.0.1.0'
p22
sS'n2'
p23
S'0.0.1.1.0.0.0.0.0'
p24
sS'none2'
p25
S'0.0.1.1.0.0.0.0.0.1'
p26
ssS'lemmas'
p27
(dp28
I0
S'ROOT'
p29
sI1
S'the'
p30
sI2
S'question'
p31
sI3
S'be'
p32
sI4
S'now'
p33
sI5
S','
sI6
S'can'
p34
sI7
S'we'
p35
sI8
S'broaden'
p36
sI9
S'out'
p37
sI10
S'a'
sI11
S'bit'
p38
sI12
S'the'
p39
sI13
S'Audit'
p40
sI14
S'Office'
p41
sI15
S'director'
p42
sI16
S"'s"
p43
sI17
S'train'
p44
sI18
S'of'
p45
sI19
S'think'
p46
sI20
S'?'
ssS'amr_graph'
p47
(dp48
(S'q'
S'p'
tp49
S':ARG1'
p50
s(S'h'
S'o'
tp51
S':ARG1'
p52
s(S'b'
g20
tp53
S':ARG2'
p54
s(S'b'
S'w'
tp55
S':ARG0'
p56
s(S'p'
S'none0'
tp57
S':mode'
p58
s(S'top'
p59
S'q'
tp60
S':focus'
p61
s(g14
g5
tp62
S':ARG0'
p63
s(S'o'
g23
tp64
S':name'
p65
s(S'b'
S't'
tp66
S':ARG1'
p67
s(g23
S'none2'
tp68
S':op2'
p69
s(S'p'
S'b'
tp70
S':domain'
p71
s(S'q'
S'n'
tp72
S':time'
p73
s(g5
S'h'
tp74
S':ARG0-of'
p75
s(S'h'
S'd'
tp76
S':ARG2'
p77
s(S't'
g14
tp78
S':mod'
p79
s(g23
S'none1'
tp80
S':op1'
p81
ssS'words'
p82
(dp83
I0
g29
sI1
VThe
p84
sI2
Vquestion
p85
sI3
Vis
p86
sI4
Vnow
p87
sI5
V,
sI6
Vcan
p88
sI7
Vwe
p89
sI8
Vbroaden
p90
sI9
Vout
p91
sI10
Va
sI11
Vbit
p92
sI12
Vthe
p93
sI13
VAudit
p94
sI14
VOffice
p95
sI15
Vdirector
p96
sI16
V's
p97
sI17
Vtrain
p98
sI18
Vof
p99
sI19
Vthought
p100
sI20
V?
ssS'amr_id'
p101
S'::id sdl_0002.24'
p102
sS'sentence'
p103
S"The question is now , can we broaden out a bit the Audit Office director 's train of thought ?"
p104
sS'amr2isi'
p105
(dp106
g5
(lp107
S'0.0.1.1.0.0'
p108
asS'b'
(lp109
S'0.0.1'
p110
asS'd'
(lp111
S'0.0.1.1.0.0.0.1'
p112
asS'none1'
p113
(lp114
S'0.0.1.1.0.0.0.0.0.0'
p115
asS'none0'
p116
(lp117
S'0.0.0'
p118
asS'h'
(lp119
S'0.0.1.1.0.0.0'
p120
asg14
(lp121
S'0.0.1.1.0'
p122
asS'o'
(lp123
S'0.0.1.1.0.0.0.0'
p124
asS'n'
(lp125
S'0.1'
p126
asS'q'
(lp127
S'0'
asS'p'
(lp128
S'0.0'
p129
asS't'
(lp130
S'0.0.1.1'
p131
asg20
(lp132
S'0.0.1.2'
p133
asS'w'
(lp134
S'0.0.1.0'
p135
asg23
(lp136
S'0.0.1.1.0.0.0.0.0'
p137
asS'none2'
p138
(lp139
S'0.0.1.1.0.0.0.0.0.1'
p140
assS'amr_concepts'
p141
(dp142
g5
S'person'
p143
sS'b'
S'broaden'
p144
sS'd'
S'director'
p145
sg9
S'Audit'
p146
sg11
S'interrogative'
p147
sS'h'
S'have-org-role'
p148
sg59
S'TOP'
p149
sg14
S'think'
p150
sS'o'
S'organization'
p151
sS'n'
S'now'
p152
sS'q'
S'question'
p153
sS'p'
S'possible'
p154
sS't'
S'train'
p155
sg20
S'bit'
p156
sS'w'
S'we'
p157
sg23
S'name'
p158
sg25
S'Office'
p159
ssS'dep_graph'
p160
(dp161
(I15
I12
tp162
S':det'
p163
s(I11
I10
tp164
S':det'
p165
s(I17
I19
tp166
S':nmod-of'
p167
s(I8
I2
tp168
S':parataxis'
p169
s(I15
I16
tp170
S':case'
p171
s(I8
I11
tp172
S':advmod'
p173
s(I19
I18
tp174
S':case'
p175
s(I2
I1
tp176
S':det'
p177
s(I8
I20
tp178
S':punct'
p179
s(I8
I9
tp180
S':compound-prt'
p181
s(I2
I3
tp182
S':cop'
p183
s(I14
I13
tp184
S':compound'
p185
s(I8
I7
tp186
S':nsubj'
p187
s(I8
I17
tp188
S':dobj'
p189
s(I8
I6
tp190
S':aux'
p191
s(I15
I14
tp192
S':compound'
p193
s(I0
I8
tp194
S':ROOT'
p195
s(I8
I5
tp196
S':punct'
p197
s(I2
I4
tp198
S':amod-tmod'
p199
s(I17
I15
tp200
S':nmod-poss'
p201
sssI2
(dp202
g3
(dp203
S'm2'
p204
S'0.1'
p205
sS'f2'
p206
S'0.4.0.0'
p207
sS'e'
S'0.3'
p208
sS'g2'
p209
S'0.0'
p210
sS'none1'
p211
S'0.6.0.0'
p212
sS'none0'
p213
S'0.3.1.0.0'
p214
sS's2'
p215
S'0.2'
p216
sS'f'
S'0.4.0.0.0'
p217
sS'm'
S'0.4'
p218
sS'c'
S'0.6'
p219
sS'l'
S'0.2.0'
p220
sS's'
S'0.5'
p221
sS'h'
S'0.3.0'
p222
sS'c3'
p223
S'0'
sS'n2'
p224
S'0.3.1.0'
p225
sS'n'
S'0.6.0'
p226
sS'c5'
p227
S'0.4.0'
p228
sS'c4'
p229
S'0.3.1'
p230
ssg27
(dp231
I0
g29
sI1
S'with'
p232
sI2
S'headquarters'
p233
sI3
S'establish'
p234
sI4
S'in'
p235
sI5
S'Canada'
p236
sI6
S','
sI7
S'GreenKel'
p237
sI8
S'be'
p238
sI9
S'a'
sI10
S'large'
p239
sI11
S'-'
sI12
S'scale'
p240
sI13
S'multi-national'
p241
sI14
S'group'
p242
sI15
S'company'
p243
sI16
S'manufacturing'
p244
sI17
S'and'
p245
sI18
S'sell'
p246
sI19
S'fluorine'
p247
sI20
S'-'
sI21
S'free'
p248
sI22
S'coolant'
p249
sI23
S'.'
ssg47
(dp250
(g223
g215
tp251
S':mod'
p252
s(g215
S'l'
tp253
S':mod'
p254
s(S'e'
S'h'
tp255
S':ARG1'
p256
s(g223
S's'
tp257
S':ARG0-of'
p258
s(g59
g223
tp259
g61
s(g227
g206
tp260
S':ARG1-of'
p261
s(g223
g209
tp262
S':mod'
p263
s(S'n'
S'none1'
tp264
S':op1'
p265
s(g229
g224
tp266
S':name'
p267
s(g223
S'e'
tp268
S':ARG0-of'
p269
s(S'c'
S'n'
tp270
S':name'
p271
s(g206
S'f'
tp272
S':ARG2'
p273
s(S'm'
g227
tp274
S':ARG1'
p275
s(g223
g204
tp276
S':mod'
p277
s(g223
S'm'
tp278
S':ARG0-of'
p279
s(g224
S'none0'
tp280
S':op1'
p281
s(S'e'
g229
tp282
S':location'
p283
s(S's'
S'c5'
tp284
S':ARG1'
p285
s(g223
S'c'
tp286
S':domain'
p287
ssg82
(dp288
I0
g29
sI1
VWith
p289
sI2
Vheadquarters
p290
sI3
Vestablished
p291
sI4
Vin
p292
sI5
VCanada
p293
sI6
V,
sI7
VGreenKel
p294
sI8
Vis
p295
sI9
Va
sI10
Vlarge
p296
sI11
V-
sI12
Vscale
p297
sI13
Vmulti-national
p298
sI14
Vgroup
p299
sI15
Vcompany
p300
sI16
Vmanufacturing
p301
sI17
Vand
p302
sI18
Vselling
p303
sI19
Vfluorine
p304
sI20
V-
sI21
Vfree
p305
sI22
Vcoolant
p306
sI23
V.
ssg101
S'::id nw.chtb_0156.3'
p307
sg103
S'With headquarters established in Canada , GreenKel is a large - scale multi-national group company manufacturing and selling fluorine - free coolant .'
p308
sg105
(dp309
g206
(lp310
S'0.4.0.0'
p311
asS'e'
(lp312
S'0.3'
p313
asg209
(lp314
S'0.0'
p315
asS'none1'
p316
(lp317
S'0.6.0.0'
p318
asS'none0'
p319
(lp320
S'0.3.1.0.0'
p321
asg215
(lp322
S'0.2'
p323
asS'f'
(lp324
S'0.4.0.0.0'
p325
asS'm'
(lp326
S'0.4'
p327
asS'c'
(lp328
S'0.6'
p329
asS'l'
(lp330
S'0.2.0'
p331
asS's'
(lp332
S'0.5'
p333
asS'h'
(lp334
S'0.3.0'
p335
asg204
(lp336
S'0.1'
p337
asg223
(lp338
S'0'
asg224
(lp339
S'0.3.1.0'
p340
asS'n'
(lp341
S'0.6.0'
p342
asg227
(lp343
S'0.4.0'
p344
asg229
(lp345
S'0.3.1'
p346
assg141
(dp347
g204
S'multi-national'
p348
sg206
S'free'
p349
sS'e'
S'establish'
p350
sg209
S'group'
p351
sg211
S'GreenKel'
p352
sg213
S'Canada'
p353
sg215
S'scale'
p354
sg59
g149
sS'f'
S'fluorine'
p355
sS'm'
S'manufacture'
p356
sS'c'
S'company'
p357
sS'l'
S'large'
p358
sS's'
S'sell'
p359
sS'h'
S'headquarters'
p360
sg223
S'company'
p361
sg224
S'name'
p362
sS'n'
S'name'
p363
sg227
S'coolant'
p364
sg229
S'country'
p365
ssg160
(dp366
(I15
I13
tp367
S':amod'
p368
s(I18
I15
tp369
S':nsubj'
p370
s(I2
I1
tp371
S':case'
p372
s(I18
I22
tp373
S':dobj'
p374
s(I15
I8
tp375
S':cop'
p376
s(I15
I12
tp377
S':amod'
p378
s(I15
I23
tp379
S':punct'
p380
s(I0
I15
tp381
S':ROOT'
p382
s(I16
I22
tp383
S':dobj'
p384
s(I16
I15
tp385
S':nsubj'
p386
s(I12
I10
tp387
S':compound'
p388
s(I16
I18
tp389
S':conj-and'
p390
s(I22
I21
tp391
S':amod'
p392
s(I21
I19
tp393
S':compound'
p394
s(I16
I17
tp395
S':cc'
p396
s(I5
I4
tp397
S':case'
p398
s(I2
I6
tp399
S':punct'
p400
s(I15
I18
tp401
S':acl-relcl'
p402
s(I2
I3
tp403
S':acl'
p404
s(I15
I7
tp405
S':nsubj'
p406
s(I12
I11
tp407
S':punct'
p408
s(I15
I14
tp409
S':compound'
p410
s(I19
I20
tp411
S':punct'
p412
s(I3
I5
tp413
S':nmod-in'
p414
s(I15
I2
tp415
S':nmod-with'
p416
s(I18
I7
tp417
S':nsubj'
p418
s(I15
I9
tp419
S':det'
p420
s(I15
I16
tp421
S':acl-relcl'
p422
sssI3
(dp423
g3
(dp424
S'o2'
p425
S'0.1.0.1.1.0'
p426
sS'e'
S'0.1.0'
p427
sS'f'
S'0.1.0.1.0'
p428
sS'h'
S'0.0'
p429
sS'none0'
p430
S'0.1.0.2.0.0'
p431
sS'l'
S'0.1.0.2'
p432
sS'o'
S'0.1.0.0'
p433
sS't3'
p434
S'0.1.0.2.0'
p435
sS's'
S'0.1'
p436
sS'r'
S'0.1.0.1'
p437
sS's2'
p438
S'0.1.0.1.1'
p439
sS'd2'
p440
S'0'
sS'd3'
p441
S'0.1.0.2.0.1'
p442
ssg27
(dp443
I0
g29
sI1
S'he'
p444
sI2
S'deny'
p445
sI3
S'the'
p446
sI4
S'statement'
p447
sI5
S'that'
p448
sI6
S'the'
p449
sI7
S'food'
p450
sI8
S'reserve'
p451
sI9
S'on'
p452
sI10
S'the'
p453
sI11
S'orbital'
p454
sI12
S'station'
p455
sI13
S'be'
p456
sI14
S'only'
p457
sI15
S'enough'
p458
sI16
S'to'
p459
sI17
S'last'
p460
sI18
S'10'
p461
sI19
S'day'
p462
sI20
S'.'
ssg47
(dp463
(g440
S's'
tp464
S':ARG1'
p465
s(S'r'
g438
tp466
S':location'
p467
s(S'l'
g434
tp468
S':ARG2'
p469
s(S'e'
S'r'
tp470
S':domain'
p471
s(S'r'
S'f'
tp472
S':mod'
p473
s(g440
S'h'
tp474
S':ARG0'
p475
s(S's'
S'e'
tp476
S':ARG1'
p477
s(S'e'
S'o'
tp478
S':mod'
p479
s(S'e'
S'l'
tp480
S':purpose'
p481
s(g438
g425
tp482
S':ARG0-of'
p483
s(g434
S'none0'
tp484
S':quant'
p485
s(g434
g441
tp486
S':unit'
p487
s(S'l'
S'r'
tp488
S':ARG1'
p489
s(g59
g440
tp490
g61
ssg82
(dp491
I0
g29
sI1
VHe
p492
sI2
Vdenied
p493
sI3
Vthe
p494
sI4
Vstatement
p495
sI5
Vthat
p496
sI6
Vthe
p497
sI7
Vfood
p498
sI8
Vreserve
p499
sI9
Von
p500
sI10
Vthe
p501
sI11
Vorbital
p502
sI12
Vstation
p503
sI13
Vis
p504
sI14
Vonly
p505
sI15
Venough
p506
sI16
Vto
p507
sI17
Vlast
p508
sI18
V10
p509
sI19
Vdays
p510
sI20
V.
ssg101
S'::id nw.chtb_0216.15'
p511
sg103
S'He denied the statement that the food reserve on the orbital station is only enough to last 10 days .'
p512
sg105
(dp513
S'e'
(lp514
S'0.1.0'
p515
asS'none0'
p516
(lp517
S'0.1.0.2.0.0'
p518
asS'h'
(lp519
S'0.0'
p520
asS'f'
(lp521
S'0.1.0.1.0'
p522
asg441
(lp523
S'0.1.0.2.0.1'
p524
asS'l'
(lp525
S'0.1.0.2'
p526
asS'o'
(lp527
S'0.1.0.0'
p528
asg434
(lp529
S'0.1.0.2.0'
p530
asS's'
(lp531
S'0.1'
p532
asS'r'
(lp533
S'0.1.0.1'
p534
asg438
(lp535
S'0.1.0.1.1'
p536
asg440
(lp537
S'0'
asg425
(lp538
S'0.1.0.1.1.0'
p539
assg141
(dp540
g425
S'orbit'
p541
sS'e'
S'enough'
p542
sS'f'
S'food'
p543
sS'h'
S'he'
p544
sg59
g149
sg430
S'10'
p545
sS'l'
S'last'
p546
sS'o'
S'only'
p547
sg434
S'temporal-quantity'
p548
sS's'
S'state'
p549
sS'r'
S'reserve'
p550
sg438
S'station'
p551
sg440
S'deny'
p552
sg441
S'day'
p553
ssg160
(dp554
(I17
I8
tp555
S':nsubj'
p556
s(I15
I13
tp557
S':cop'
p558
s(I8
I7
tp559
S':compound'
p560
s(I2
I20
tp561
S':punct'
p562
s(I8
I12
tp563
S':nmod-on'
p564
s(I15
I16
tp565
S':mark'
p566
s(I4
I15
tp567
S':ccomp'
p568
s(I12
I11
tp569
S':amod'
p570
s(I19
I18
tp571
S':nummod'
p572
s(I2
I1
tp573
S':nsubj'
p574
s(I2
I4
tp575
S':dobj'
p576
s(I17
I19
tp577
S':nmod-tmod'
p578
s(I15
I8
tp579
S':nsubj'
p580
s(I4
I3
tp581
S':det'
p582
s(I12
I10
tp583
S':det'
p584
s(I8
I6
tp585
S':det'
p586
s(I15
I14
tp587
S':advmod'
p588
s(I15
I5
tp589
S':mark'
p590
s(I12
I9
tp591
S':case'
p592
s(I0
I2
tp593
S':ROOT'
p594
s(I15
I17
tp595
S':xcomp'
p596
sssI4
(dp597
g3
(dp598
S'none7'
p599
S'0.1.1.0.1'
p600
sS'none6'
p601
S'0.1.1.0.0'
p602
sS'none5'
p603
S'0.1.0.0.1'
p604
sS'none4'
p605
S'0.1.0.0.0'
p606
sS'none3'
p607
S'0.0.0.1.0.1'
p608
sS'none2'
p609
S'0.0.0.1.0.0'
p610
sS'none1'
p611
S'0.0.0.0.0.1'
p612
sS'none0'
p613
S'0.0.0.0.0.0'
p614
sS'none9'
p615
S'0.1.2.0.1'
p616
sS'none8'
p617
S'0.1.2.0.0'
p618
sS'd2'
p619
S'0.0.0'
p620
sS'd3'
p621
S'0.0.0.1.0'
p622
sS'a'
S'0.1'
p623
sS'p2'
p624
S'0.1.0'
p625
sS'p3'
p626
S'0.1.1'
p627
sS'c'
S'0.1.2.1.1.0'
p628
sS'e'
S'0.0.0.0'
p629
sS'd'
S'0.0'
p630
sS'p4'
p631
S'0.1.2'
p632
sS'p5'
p633
S'0.1.2.1.0'
p634
sS'h'
S'0.1.2.1'
p635
sS'm'
S'0.0.0.1'
p636
sS'n'
S'0.1.0.0'
p637
sS'q'
S'0.0.1'
p638
sS'p'
S'0'
sS's'
S'0.1.2.1.1'
p639
sS'n2'
p640
S'0.1.1.0'
p641
sS'n3'
p642
S'0.1.2.0'
p643
sS'n4'
p644
S'0.1.2.1.0.0'
p645
sS'n5'
p646
S'0.0.0.0.0'
p647
sS'none11'
p648
S'0.1.2.1.0.0.1'
p649
sS'none10'
p650
S'0.1.2.1.0.0.0'
p651
ssg27
(dp652
I0
g29
sI1
S'on'
p653
sI2
S'the'
p654
sI3
S'day'
p655
sI4
S'of'
p656
sI5
S'the'
p657
sI6
S'Tangshan'
p658
sI7
S'earthquake'
p659
sI8
S','
sI9
S'i.e.'
p660
sI10
S'July'
p661
sI11
S'28th'
p662
sI12
S','
sI13
S'those'
p663
sI14
S'on'
p664
sI15
S'duty'
p665
sI16
S'at'
p666
sI17
S'Mao'
p667
sI18
S'Zedong'
p668
sI19
S"'s"
p669
sI20
S'quarter'
p670
sI21
S'be'
p671
sI22
S'Wang'
p672
sI23
S'Dongxing'
p673
sI24
S','
sI25
S'Wang'
p674
sI26
S'Hongwen'
p675
sI27
S','
sI28
S'and'
p676
sI29
S'Mao'
p677
sI30
S'Zedong'
p678
sI31
S"'s"
p679
sI32
S'confidential'
p680
sI33
S'secretary'
p681
sI34
S','
sI35
S'Zhang'
p682
sI36
S'Yufeng'
p683
sI37
S'.'
ssg47
(dp684
(S'p'
S'd'
tp685
S':prep-on'
p686
s(g644
S'none10'
tp687
S':op1'
p688
s(S'a'
g624
tp689
S':op1'
p690
s(g642
S'none9'
tp691
S':op2'
p692
s(S's'
S'c'
tp693
S':mod'
p694
s(S'h'
S's'
tp695
S':ARG2'
p696
s(g621
S'none3'
tp697
S':day'
p698
s(S'e'
g646
tp699
S':name'
p700
s(g619
S'e'
tp701
S':time-of'
p702
s(g59
S'p'
tp703
g61
s(S'n'
S'none5'
tp704
S':op2'
p705
s(S'd'
S'q'
tp706
S':location'
p707
s(S'n'
S'none4'
tp708
S':op1'
p709
s(S'p'
S'a'
tp710
S':domain'
p711
s(S'a'
g631
tp712
S':op3'
p713
s(S'm'
g621
tp714
S':ARG1'
p715
s(S'd'
g619
tp716
S':time'
p717
s(g619
S'm'
tp718
S':ARG0-of'
p719
s(S'h'
g633
tp720
S':ARG1'
p721
s(g646
S'none1'
tp722
S':op2'
p723
s(S'a'
g626
tp724
S':op2'
p725
s(g631
S'h'
tp726
S':ARG0-of'
p727
s(g640
S'none6'
tp728
S':op1'
p729
s(g626
g640
tp730
S':name'
p731
s(g631
g642
tp732
S':name'
p733
s(g646
S'none0'
tp734
S':op1'
p735
s(S'q'
S'p5'
tp736
S':poss'
p737
s(g644
S'none11'
tp738
S':op2'
p739
s(g624
S'n'
tp740
S':name'
p741
s(g642
S'none8'
tp742
S':op1'
p743
s(g640
S'none7'
tp744
S':op2'
p745
s(g633
g644
tp746
S':name'
p747
s(g621
S'none2'
tp748
S':month'
p749
ssg82
(dp750
I0
g29
sI1
VOn
p751
sI2
Vthe
p752
sI3
Vday
p753
sI4
Vof
p754
sI5
Vthe
p755
sI6
VTangshan
p756
sI7
VEarthquake
p757
sI8
V,
sI9
Vi.e.
p758
sI10
VJuly
p759
sI11
V28th
p760
sI12
V,
sI13
Vthose
p761
sI14
Von
p762
sI15
Vduty
p763
sI16
Vat
p764
sI17
VMao
p765
sI18
VZedong
p766
sI19
V's
p767
sI20
Vquarters
p768
sI21
Vwere
p769
sI22
VWang
p770
sI23
VDongxing
p771
sI24
V,
sI25
VWang
p772
sI26
VHongwen
p773
sI27
V,
sI28
Vand
p774
sI29
VMao
p775
sI30
VZedong
p776
sI31
V's
p777
sI32
Vconfidential
p778
sI33
Vsecretary
p779
sI34
V,
sI35
VZhang
p780
sI36
VYufeng
p781
sI37
V.
ssg101
S'::id bolt12_10511_2891.4'
p782
sg103
S"On the day of the Tangshan Earthquake, i.e. July 28th, those on duty at Mao Zedong's quarters were Wang Dongxing, Wang Hongwen, and Mao Zedong's confidential secretary, Zhang Yufeng."
p783
sg105
(dp784
S'none7'
p785
(lp786
S'0.1.1.0.1'
p787
asS'none6'
p788
(lp789
S'0.1.1.0.0'
p790
asS'none5'
p791
(lp792
S'0.1.0.0.1'
p793
asS'none4'
p794
(lp795
S'0.1.0.0.0'
p796
asS'none3'
p797
(lp798
S'0.0.0.1.0.1'
p799
asS'none2'
p800
(lp801
S'0.0.0.1.0.0'
p802
asS'none1'
p803
(lp804
S'0.0.0.0.0.1'
p805
asS'none0'
p806
(lp807
S'0.0.0.0.0.0'
p808
asS'none9'
p809
(lp810
S'0.1.2.0.1'
p811
asS'none8'
p812
(lp813
S'0.1.2.0.0'
p814
asg619
(lp815
S'0.0.0'
p816
asg621
(lp817
S'0.0.0.1.0'
p818
asS'a'
(lp819
S'0.1'
p820
asg624
(lp821
S'0.1.0'
p822
asg626
(lp823
S'0.1.1'
p824
asS'c'
(lp825
S'0.1.2.1.1.0'
p826
asS'e'
(lp827
S'0.0.0.0'
p828
asS'd'
(lp829
S'0.0'
p830
asg631
(lp831
S'0.1.2'
p832
asg633
(lp833
S'0.1.2.1.0'
p834
asS'h'
(lp835
S'0.1.2.1'
p836
asS'm'
(lp837
S'0.0.0.1'
p838
asS'n'
(lp839
S'0.1.0.0'
p840
asS'q'
(lp841
S'0.0.1'
p842
asS'p'
(lp843
S'0'
asS's'
(lp844
S'0.1.2.1.1'
p845
asg640
(lp846
S'0.1.1.0'
p847
asg642
(lp848
S'0.1.2.0'
p849
asg644
(lp850
S'0.1.2.1.0.0'
p851
asg646
(lp852
S'0.0.0.0.0'
p853
asS'none11'
p854
(lp855
S'0.1.2.1.0.0.1'
p856
asS'none10'
p857
(lp858
S'0.1.2.1.0.0.0'
p859
assg141
(dp860
g599
S'Hongwen'
p861
sg601
S'Wang'
p862
sg603
S'Dongxing'
p863
sg605
S'Wang'
p864
sg607
S'28'
p865
sg609
S'7'
sg611
S'Earthquake'
p866
sg613
S'Tangshan'
p867
sg615
S'Yufeng'
p868
sg617
S'Zhang'
p869
sg619
S'day'
p870
sg621
S'date-entity'
p871
sg59
g149
sS'a'
S'and'
p872
sg624
S'person'
p873
sg626
S'person'
p874
sS'c'
S'confidence'
p875
sS'e'
S'earthquake'
p876
sS'd'
S'duty'
p877
sg631
S'person'
p878
sg633
S'person'
p879
sS'h'
S'have-org-role'
p880
sS'm'
S'mean'
p881
sS'n'
S'name'
p882
sS'q'
S'quarter'
p883
sS'p'
S'person'
p884
sS's'
S'secretary'
p885
sg640
S'name'
p886
sg642
S'name'
p887
sg644
S'name'
p888
sg646
S'name'
p889
sg648
S'Zedong'
p890
sg650
S'Mao'
p891
ssg160
(dp892
(I13
I22
tp893
S':nsubj'
p894
s(I13
I33
tp895
S':nsubj'
p896
s(I22
I23
tp897
S':name'
p898
s(I15
I20
tp899
S':nmod-at'
p900
s(I9
I8
tp901
S':punct'
p902
s(I22
I26
tp903
S':name'
p904
s(I13
I37
tp905
S':punct'
p906
s(I33
I35
tp907
S':appos'
p908
s(I3
I7
tp909
S':nmod-of'
p910
s(I33
I32
tp911
S':amod'
p912
s(I20
I17
tp913
S':nmod-poss'
p914
s(I13
I21
tp915
S':cop'
p916
s(I11
I10
tp917
S':compound'
p918
s(I13
I3
tp919
S':nmod-on'
p920
s(I22
I27
tp921
S':punct'
p922
s(I13
I25
tp923
S':nsubj'
p924
s(I7
I6
tp925
S':compound'
p926
s(I29
I31
tp927
S':case'
p928
s(I9
I11
tp929
S':advmod'
p930
s(I22
I28
tp931
S':cc'
p932
s(I35
I36
tp933
S':name'
p934
s(I33
I34
tp935
S':punct'
p936
s(I3
I2
tp937
S':det'
p938
s(I17
I19
tp939
S':case'
p940
s(I22
I24
tp941
S':punct'
p942
s(I29
I30
tp943
S':name'
p944
s(I13
I15
tp945
S':nmod-on'
p946
s(I7
I5
tp947
S':det'
p948
s(I33
I29
tp949
S':nmod-poss'
p950
s(I15
I14
tp951
S':case'
p952
s(I17
I18
tp953
S':name'
p954
s(I22
I25
tp955
S':conj-and'
p956
s(I22
I33
tp957
S':conj-and'
p958
s(I3
I1
tp959
S':case'
p960
s(I0
I13
tp961
S':ROOT'
p962
s(I7
I4
tp963
S':case'
p964
s(I3
I9
tp965
S':parataxis'
p966
s(I9
I12
tp967
S':punct'
p968
s(I20
I16
tp969
S':case'
p970
sssI5
(dp971
g3
(dp972
S'none5'
p973
S'0.3.1.0'
p974
sS'none4'
p975
S'0.1.2.0.0'
p976
sS'none3'
p977
S'0.0.1.0.0.0'
p978
sS'none2'
p979
S'0.0.0.2'
p980
sS'none1'
p981
S'0.0.0.1'
p982
sS'none0'
p983
S'0.0.0.0'
p984
sS'm'
S'0.1'
p985
sS's2'
p986
S'0.2'
p987
sS'm3'
p988
S'0.1.1.0.1.0'
p989
sS'm2'
p990
S'0.1.1.0'
p991
sS'o3'
p992
S'0.1.1.0.0'
p993
sS'o2'
p994
S'0.0.1'
p995
sS'a2'
p996
S'0.1.1.0.1'
p997
sS'c2'
p998
S'0.1.2'
p999
sS'a'
S'0.1.1.0.1.0.0'
p1000
sS'c'
S'0.0.1.0'
p1001
sS'b'
S'0.3'
p1002
sS'e'
S'0.1.1'
p1003
sS'h'
S'0.1.0.0'
p1004
sS't2'
p1005
S'0.1.3'
p1006
sS't3'
p1007
S'0.1.0'
p1008
sS'o'
S'0.0'
p1009
sS'n'
S'0.0.0'
p1010
sS's'
S'0'
sS't'
S'0.3.1'
p1011
sS'y'
S'0.3.1.1'
p1012
sS'n2'
p1013
S'0.0.1.0.0'
p1014
sS'n3'
p1015
S'0.1.2.0'
p1016
sS'n4'
p1017
S'0.3.0'
p1018
ssg27
(dp1019
I0
g29
sI1
S'in'
p1020
sI2
S'the'
p1021
sI3
S'past'
p1022
sI4
S'10'
p1023
sI5
S'year'
p1024
sI6
S','
sI7
S'behind'
p1025
sI8
S'these'
p1026
sI9
S'chinese'
p1027
sI10
S'high-tech'
p1028
sI11
S'magnate'
p1029
sI12
S'who'
p1030
sI13
S'emerge'
p1031
sI14
S'one'
p1032
sI15
S'after'
p1033
sI16
S'another'
p1034
sI17
S'be'
p1035
sI18
S'sure'
p1036
sI19
S'to'
p1037
sI20
S'be'
p1038
sI21
S'the'
p1039
sI22
S'shadow'
p1040
sI23
S'of'
p1041
sI24
S'the'
p1042
sI25
S'U.S.'
p1043
sI26
S'own'
p1044
sI27
S'International'
p1045
sI28
S'Data'
p1046
sI29
S'Group'
p1047
sI30
S'-lrb-'
p1048
sI31
S'IDG'
p1049
sI32
S'-rrb-'
p1050
sI33
S'.'
ssg47
(dp1051
(S't'
S'none5'
tp1052
S':quant'
p1053
s(S'm'
g1005
tp1054
S':mod'
p1055
s(S'o'
S'n'
tp1056
S':name'
p1057
s(g988
S'a'
tp1058
S':mod'
p1059
s(S's'
S'b'
tp1060
S':time'
p1061
s(S'm'
g1007
tp1062
S':mod'
p1063
s(S's'
S'o'
tp1064
S':ARG0'
p1065
s(S'b'
g1017
tp1066
S':op1'
p1067
s(S'e'
g990
tp1068
S':manner'
p1069
s(S'm'
S'e'
tp1070
S':ARG0-of'
p1071
s(g1013
S'none3'
tp1072
S':op1'
p1073
s(S's'
g986
tp1074
S':mod'
p1075
s(S'n'
S'none0'
tp1076
S':op1'
p1077
s(g990
g996
tp1078
S':time'
p1079
s(S'b'
S't'
tp1080
S':duration'
p1081
s(S'n'
S'none1'
tp1082
S':op2'
p1083
s(g994
S'c'
tp1084
S':ARG0'
p1085
s(g1015
S'none4'
tp1086
S':op1'
p1087
s(S'o'
g994
tp1088
S':ARG1-of'
p1089
s(S'c'
g1013
tp1090
S':name'
p1091
s(S's'
S'm'
tp1092
S':ARG1'
p1093
s(g990
g992
tp1094
S':mod'
p1095
s(S'm'
g998
tp1096
S':mod'
p1097
s(g59
S's'
tp1098
g61
s(g998
g1015
tp1099
S':name'
p1100
s(g996
g988
tp1101
S':op1'
p1102
s(g1007
S'h'
tp1103
S':mod'
p1104
s(S'n'
S'none2'
tp1105
S':op3'
p1106
s(S't'
S'y'
tp1107
S':unit'
p1108
ssg82
(dp1109
I0
g29
sI1
VIn
p1110
sI2
Vthe
p1111
sI3
Vpast
p1112
sI4
V10
p1113
sI5
Vyears
p1114
sI6
V,
sI7
Vbehind
p1115
sI8
Vthese
p1116
sI9
VChinese
p1117
sI10
Vhigh-tech
p1118
sI11
Vmagnates
p1119
sI12
Vwho
p1120
sI13
Vemerged
p1121
sI14
Vone
p1122
sI15
Vafter
p1123
sI16
Vanother
p1124
sI17
Vwas
p1125
sI18
Vsure
p1126
sI19
Vto
p1127
sI20
Vbe
p1128
sI21
Vthe
p1129
sI22
Vshadow
p1130
sI23
Vof
p1131
sI24
Vthe
p1132
sI25
VU.S.
p1133
sI26
Vowned
p1134
sI27
VInternational
p1135
sI28
VData
p1136
sI29
VGroup
p1137
sI30
V-LRB-
p1138
sI31
VIDG
p1139
sI32
V-RRB-
p1140
sI33
V.
ssg101
S'::id bolt12_3473_7371.2'
p1141
sg103
S'In the past 10 years, behind these Chinese high-tech magnates who emerged one after another was sure to be the shadow of the U.S. owned International Data Group (IDG).'
p1142
sg105
(dp1143
S'none5'
p1144
(lp1145
S'0.3.1.0'
p1146
asS'none4'
p1147
(lp1148
S'0.1.2.0.0'
p1149
asS'none3'
p1150
(lp1151
S'0.0.1.0.0.0'
p1152
asS'none2'
p1153
(lp1154
S'0.0.0.2'
p1155
asS'none1'
p1156
(lp1157
S'0.0.0.1'
p1158
asS'none0'
p1159
(lp1160
S'0.0.0.0'
p1161
asg1005
(lp1162
S'0.1.3'
p1163
asg986
(lp1164
S'0.2'
p1165
asg988
(lp1166
S'0.1.1.0.1.0'
p1167
asg990
(lp1168
S'0.1.1.0'
p1169
asg992
(lp1170
S'0.1.1.0.0'
p1171
asg994
(lp1172
S'0.0.1'
p1173
asg996
(lp1174
S'0.1.1.0.1'
p1175
asg998
(lp1176
S'0.1.2'
p1177
asS'a'
(lp1178
S'0.1.1.0.1.0.0'
p1179
asS'c'
(lp1180
S'0.0.1.0'
p1181
asS'b'
(lp1182
S'0.3'
p1183
asS'e'
(lp1184
S'0.1.1'
p1185
asS'h'
(lp1186
S'0.1.0.0'
p1187
asS'm'
(lp1188
S'0.1'
p1189
asg1007
(lp1190
S'0.1.0'
p1191
asS'o'
(lp1192
S'0.0'
p1193
asS'n'
(lp1194
S'0.0.0'
p1195
asS's'
(lp1196
S'0'
asS't'
(lp1197
S'0.3.1'
p1198
asS'y'
(lp1199
S'0.3.1.1'
p1200
asg1013
(lp1201
S'0.0.1.0.0'
p1202
asg1015
(lp1203
S'0.1.2.0'
p1204
asg1017
(lp1205
S'0.3.0'
p1206
assg141
(dp1207
g973
S'10'
p1208
sg975
S'China'
p1209
sg977
S'U.S.'
p1210
sg979
S'Group'
p1211
sg981
S'Data'
p1212
sg983
S'International'
p1213
sS'm'
S'magnate'
p1214
sg986
S'sure'
p1215
sg59
g149
sg988
S'magnate'
p1216
sg990
S'magnate'
p1217
sg992
S'one'
p1218
sg994
S'own'
p1219
sg996
S'after'
p1220
sg998
S'country'
p1221
sS'a'
S'another'
p1222
sS'c'
S'country'
p1223
sS'b'
S'before'
p1224
sS'e'
S'emerge'
p1225
sS'h'
S'high'
p1226
sg1005
S'this'
p1227
sg1007
S'tech'
p1228
sS'o'
S'organization'
p1229
sS'n'
S'name'
p1230
sS's'
S'shadow'
p1231
sS't'
S'temporal-quantity'
p1232
sS'y'
S'year'
p1233
sg1013
S'name'
p1234
sg1015
S'name'
p1235
sg1017
S'now'
p1236
ssg160
(dp1237
(I29
I28
tp1238
S':compound'
p1239
s(I18
I22
tp1240
S':xcomp'
p1241
s(I5
I6
tp1242
S':punct'
p1243
s(I22
I19
tp1244
S':mark'
p1245
s(I29
I23
tp1246
S':case'
p1247
s(I5
I1
tp1248
S':case'
p1249
s(I31
I30
tp1250
S':punct'
p1251
s(I31
I32
tp1252
S':punct'
p1253
s(I26
I25
tp1254
S':compound'
p1255
s(I29
I27
tp1256
S':compound'
p1257
s(I22
I20
tp1258
S':cop'
p1259
s(I11
I10
tp1260
S':amod'
p1261
s(I18
I5
tp1262
S':nmod-in'
p1263
s(I29
I31
tp1264
S':appos'
p1265
s(I29
I26
tp1266
S':nmod'
p1267
s(I22
I21
tp1268
S':det'
p1269
s(I11
I13
tp1270
S':acl-relcl'
p1271
s(I5
I4
tp1272
S':nummod'
p1273
s(I11
I9
tp1274
S':amod'
p1275
s(I0
I18
tp1276
S':ROOT'
p1277
s(I18
I17
tp1278
S':cop'
p1279
s(I11
I33
tp1280
S':punct'
p1281
s(I14
I15
tp1282
S':mwe'
p1283
s(I22
I29
tp1284
S':nmod-of'
p1285
s(I11
I12
tp1286
S':ref'
p1287
s(I5
I3
tp1288
S':amod'
p1289
s(I11
I7
tp1290
S':case'
p1291
s(I14
I16
tp1292
S':mwe'
p1293
s(I11
I8
tp1294
S':det'
p1295
s(I5
I2
tp1296
S':det'
p1297
s(I13
I14
tp1298
S':dobj'
p1299
s(I29
I24
tp1300
S':det'
p1301
s(I13
I11
tp1302
S':nsubj'
p1303
s(I18
I11
tp1304
S':nmod-behind'
p1305
sssI6
(dp1306
g3
(dp1307
S'c'
S'0.0.0'
p1308
sS'd'
S'0.1.0.0'
p1309
sS'none0'
p1310
S'0.0.0.0.0'
p1311
sS'l'
S'0.0'
p1312
sS'n'
S'0.0.0.0'
p1313
sS'p'
S'0.1'
p1314
sS's'
S'0'
sS't'
S'0.1.0'
p1315
sS'd2'
p1316
S'0.1.1'
p1317
ssg27
(dp1318
I0
g29
sI1
S'iranian'
p1319
sI2
S'law'
p1320
sI3
S'state'
p1321
sI4
S'the'
p1322
sI5
S'death'
p1323
sI6
S'penalty'
p1324
sI7
S'for'
p1325
sI8
S'drug'
p1326
sI9
S'trafficking'
p1327
sI10
S'.'
ssg47
(dp1328
(S's'
S'l'
tp1329
S':ARG0'
p1330
s(S'l'
S'c'
tp1331
S':source'
p1332
s(S'p'
g1316
tp1333
S':manner'
p1334
s(S's'
S'p'
tp1335
S':ARG1'
p1336
s(g59
S's'
tp1337
g61
s(S'p'
S't'
tp1338
S':ARG2'
p1339
s(S'n'
S'none0'
tp1340
S':op1'
p1341
s(S'c'
S'n'
tp1342
S':name'
p1343
s(S'p'
S'l'
tp1344
S':ARG0'
p1345
s(S't'
S'd'
tp1346
S':mod'
p1347
ssg82
(dp1348
I0
g29
sI1
VIranian
p1349
sI2
Vlaw
p1350
sI3
Vstates
p1351
sI4
Vthe
p1352
sI5
Vdeath
p1353
sI6
Vpenalty
p1354
sI7
Vfor
p1355
sI8
Vdrug
p1356
sI9
Vtrafficking
p1357
sI10
V.
ssg101
S'::id PROXY_AFP_ENG_20020117_0270.19'
p1358
sg103
S'Iranian law states the death penalty for drug trafficking.'
p1359
sg105
(dp1360
S'c'
(lp1361
S'0.0.0'
p1362
asS'd'
(lp1363
S'0.1.0.0'
p1364
asS'none0'
p1365
(lp1366
S'0.0.0.0.0'
p1367
asS'l'
(lp1368
S'0.0'
p1369
asS'n'
(lp1370
S'0.0.0.0'
p1371
asS'p'
(lp1372
S'0.1'
p1373
asS's'
(lp1374
S'0'
asS't'
(lp1375
S'0.1.0'
p1376
asg1316
(lp1377
S'0.1.1'
p1378
assg141
(dp1379
S'c'
S'country'
p1380
sS'd'
S'drug'
p1381
sg1310
S'Iran'
p1382
sg59
g149
sS'l'
S'law'
p1383
sS'n'
S'name'
p1384
sS'p'
S'penalize'
p1385
sS's'
S'state'
p1386
sS't'
S'trafficking'
p1387
sg1316
S'die'
p1388
ssg160
(dp1389
(I6
I4
tp1390
S':det'
p1391
s(I3
I2
tp1392
S':nsubj'
p1393
s(I9
I8
tp1394
S':compound'
p1395
s(I6
I9
tp1396
S':nmod-for'
p1397
s(I2
I1
tp1398
S':amod'
p1399
s(I3
I6
tp1400
S':dobj'
p1401
s(I0
I3
tp1402
S':ROOT'
p1403
s(I3
I10
tp1404
S':punct'
p1405
s(I6
I5
tp1406
S':compound'
p1407
s(I9
I7
tp1408
S':case'
p1409
sssI7
(dp1410
g3
(dp1411
S'none1'
p1412
S'0.0.1.1.0.1.0.0'
p1413
sS'none0'
p1414
S'0.0.0.1.0.0'
p1415
sS'd2'
p1416
S'0.0.1.1.0.0'
p1417
sS'd3'
p1418
S'0.0.1.1.0.2'
p1419
sS's2'
p1420
S'0.0.1.1.0.0.0'
p1421
sS'm3'
p1422
S'0.0.1.1.0.1.0'
p1423
sS'm2'
p1424
S'0.0.1.0'
p1425
sS'i2'
p1426
S'0.0.1.1'
p1427
sS'v2'
p1428
S'0.0.1.1.0.1'
p1429
sS'a2'
p1430
S'0.0.1.1.0.1.1'
p1431
sS'c2'
p1432
S'0.0.1.1.0.2.1'
p1433
sS'a'
S'0.0.1.1.0'
p1434
sS'c'
S'0.0.0.1'
p1435
sS'd'
S'0.0.0.0'
p1436
sS'i'
S'0'
sS'h'
S'0.0.1'
p1437
sS'm'
S'0.0.0'
p1438
sS'o'
S'0.0.1.1.0.2.0'
p1439
sS'n'
S'0.0.0.1.0'
p1440
sS'p'
S'0.0'
p1441
sS's'
S'0.1'
p1442
sS't'
S'0.0.1.1.0.2.1.0'
p1443
sS'n2'
p1444
S'0.0.1.1.0.0.0.0'
p1445
ssg27
(dp1446
I0
g29
sI1
S'there'
p1447
sI2
S'have'
p1448
sI3
S'be'
p1449
sI4
S'a'
sI5
S'sharp'
p1450
sI6
S'increase'
p1451
sI7
S'in'
p1452
sI8
S'indian'
p1453
sI9
S'Defense'
p1454
sI10
S'Ministry'
p1455
sI11
S"'s"
p1456
sI12
S'purchase'
p1457
sI13
S'of'
p1458
sI14
S'military'
p1459
sI15
S'hardware'
p1460
sI16
S'include'
p1461
sI17
S'night'
p1462
sI18
S'vision'
p1463
sI19
S'device'
p1464
sI20
S','
sI21
S'unmanned'
p1465
sI22
S'aerial'
p1466
sI23
S'vehicle'
p1467
sI24
S'and'
p1468
sI25
S'other'
p1469
sI26
S'anti-terrorism'
p1470
sI27
S'device'
p1471
sI28
S'.'
ssg47
(dp1472
(g1416
g1420
tp1473
S':purpose'
p1474
s(S'm'
S'd'
tp1475
S':mod'
p1476
s(g1428
g1430
tp1477
S':mod'
p1478
s(g1418
S'o'
tp1479
S':mod'
p1480
s(g1418
g1432
tp1481
S':ARG0-of'
p1482
s(S'a'
g1418
tp1483
S':op3'
p1484
s(S'm'
S'c'
tp1485
S':mod'
p1486
s(g1428
g1422
tp1487
S':ARG1-of'
p1488
s(S'p'
S'h'
tp1489
S':ARG1'
p1490
s(S'h'
g1424
tp1491
S':mod'
p1492
s(S'n'
S'none0'
tp1493
S':op1'
p1494
s(S'p'
S'm'
tp1495
S':ARG0'
p1496
s(g1422
S'none1'
tp1497
S':polarity'
p1498
s(S'c'
S'n'
tp1499
S':name'
p1500
s(g1432
S't'
tp1501
S':ARG1'
p1502
s(g1420
g1444
tp1503
S':time'
p1504
s(S'h'
g1426
tp1505
S':ARG2-of'
p1506
s(S'i'
S'p'
tp1507
S':ARG1'
p1508
s(g59
S'i'
tp1509
g61
s(S'a'
g1428
tp1510
S':op2'
p1511
s(g1426
S'a'
tp1512
S':ARG1'
p1513
s(S'i'
S's'
tp1514
S':manner'
p1515
s(S'a'
g1416
tp1516
S':op1'
p1517
ssg82
(dp1518
I0
g29
sI1
VThere
p1519
sI2
Vhas
p1520
sI3
Vbeen
p1521
sI4
Va
sI5
Vsharp
p1522
sI6
Vincrease
p1523
sI7
Vin
p1524
sI8
VIndian
p1525
sI9
VDefense
p1526
sI10
VMinistry
p1527
sI11
V's
p1528
sI12
Vpurchases
p1529
sI13
Vof
p1530
sI14
Vmilitary
p1531
sI15
Vhardware
p1532
sI16
Vincluding
p1533
sI17
Vnight
p1534
sI18
Vvision
p1535
sI19
Vdevices
p1536
sI20
V,
sI21
Vunmanned
p1537
sI22
Vaerial
p1538
sI23
Vvehicles
p1539
sI24
Vand
p1540
sI25
Vother
p1541
sI26
Vanti-terrorism
p1542
sI27
Vdevices
p1543
sI28
V.
ssg101
S'::id PROXY_AFP_ENG_20020629_0321.15'
p1544
sg103
S"There has been a sharp increase in Indian Defense Ministry's purchases of military hardware including night vision devices, unmanned aerial vehicles and other anti-terrorism devices."
p1545
sg105
(dp1546
S'none1'
p1547
(lp1548
S'0.0.1.1.0.1.0.0'
p1549
asS'none0'
p1550
(lp1551
S'0.0.0.1.0.0'
p1552
asg1416
(lp1553
S'0.0.1.1.0.0'
p1554
asg1418
(lp1555
S'0.0.1.1.0.2'
p1556
asg1420
(lp1557
S'0.0.1.1.0.0.0'
p1558
asg1422
(lp1559
S'0.0.1.1.0.1.0'
p1560
asg1424
(lp1561
S'0.0.1.0'
p1562
asg1426
(lp1563
S'0.0.1.1'
p1564
asg1428
(lp1565
S'0.0.1.1.0.1'
p1566
asg1430
(lp1567
S'0.0.1.1.0.1.1'
p1568
asg1432
(lp1569
S'0.0.1.1.0.2.1'
p1570
asS'a'
(lp1571
S'0.0.1.1.0'
p1572
asS'c'
(lp1573
S'0.0.0.1'
p1574
asS'd'
(lp1575
S'0.0.0.0'
p1576
asS'i'
(lp1577
S'0'
asS'h'
(lp1578
S'0.0.1'
p1579
asS'm'
(lp1580
S'0.0.0'
p1581
asS'o'
(lp1582
S'0.0.1.1.0.2.0'
p1583
asS'n'
(lp1584
S'0.0.0.1.0'
p1585
asS'p'
(lp1586
S'0.0'
p1587
asS's'
(lp1588
S'0.1'
p1589
asS't'
(lp1590
S'0.0.1.1.0.2.1.0'
p1591
asg1444
(lp1592
S'0.0.1.1.0.0.0.0'
p1593
assg141
(dp1594
g1412
S'-'
sg1414
S'India'
p1595
sg1416
S'device'
p1596
sg1418
S'device'
p1597
sg1420
S'see'
p1598
sg59
g149
sg1422
S'man'
p1599
sg1424
S'military'
p1600
sg1426
S'include'
p1601
sg1428
S'vehicle'
p1602
sg1430
S'aerial'
p1603
sg1432
S'counter'
p1604
sS'a'
S'and'
p1605
sS'c'
S'country'
p1606
sS'd'
S'defense'
p1607
sS'i'
S'increase'
p1608
sS'h'
S'hardware'
p1609
sS'm'
S'ministry'
p1610
sS'o'
S'other'
p1611
sS'n'
S'name'
p1612
sS'p'
S'purchase'
p1613
sS's'
S'sharp'
p1614
sS't'
S'terrorism'
p1615
sg1444
S'night'
p1616
ssg160
(dp1617
(I15
I27
tp1618
S':nmod-including'
p1619
s(I27
I26
tp1620
S':amod'
p1621
s(I15
I13
tp1622
S':case'
p1623
s(I10
I11
tp1624
S':case'
p1625
s(I6
I28
tp1626
S':punct'
p1627
s(I23
I22
tp1628
S':amod'
p1629
s(I6
I2
tp1630
S':aux'
p1631
s(I15
I19
tp1632
S':nmod-including'
p1633
s(I10
I8
tp1634
S':amod'
p1635
s(I19
I18
tp1636
S':compound'
p1637
s(I15
I23
tp1638
S':nmod-including'
p1639
s(I27
I25
tp1640
S':amod'
p1641
s(I6
I3
tp1642
S':cop'
p1643
s(I23
I21
tp1644
S':amod'
p1645
s(I12
I10
tp1646
S':nmod-poss'
p1647
s(I10
I9
tp1648
S':compound'
p1649
s(I6
I4
tp1650
S':det'
p1651
s(I12
I7
tp1652
S':case'
p1653
s(I18
I17
tp1654
S':nmod'
p1655
s(I19
I24
tp1656
S':cc'
p1657
s(I6
I12
tp1658
S':nmod-in'
p1659
s(I15
I14
tp1660
S':amod'
p1661
s(I19
I20
tp1662
S':punct'
p1663
s(I6
I5
tp1664
S':amod'
p1665
s(I12
I15
tp1666
S':nmod-of'
p1667
s(I19
I16
tp1668
S':case'
p1669
s(I6
I1
tp1670
S':expl'
p1671
s(I19
I27
tp1672
S':conj-and'
p1673
s(I0
I6
tp1674
S':ROOT'
p1675
s(I19
I23
tp1676
S':conj-and'
p1677
sssI8
(dp1678
g3
(dp1679
S'c'
S'0.1.0.1'
p1680
sS'b'
S'0'
sS'none2'
p1681
S'0.1.0.1.0.0'
p1682
sS'none1'
p1683
S'0.1.0.0'
p1684
sS'none0'
p1685
S'0.0.0'
p1686
sS'i'
S'0.0.1'
p1687
sS'v'
S'0.1.0'
p1688
sS'm'
S'0.0'
p1689
sS'o'
S'0.1'
p1690
sS'n'
S'0.1.0.1.0'
p1691
sS'm2'
p1692
S'0.0.1.0'
p1693
ssg27
(dp1694
I0
g29
sI1
S'one'
p1695
sI2
S'of'
p1696
sI3
S'the'
p1697
sI4
S'missile'
p1698
sI5
S'break'
p1699
sI6
S'up'
p1700
sI7
S'over'
p1701
sI8
S'two'
p1702
sI9
S'turkish'
p1703
sI10
S'village'
p1704
sI11
S'.'
ssg47
(dp1705
(S'b'
S'm'
tp1706
S':ARG1'
p1707
s(S'i'
g1692
tp1708
S':ARG2'
p1709
s(g59
S'b'
tp1710
g61
s(S'm'
S'none0'
tp1711
S':quant'
p1712
s(S'v'
S'c'
tp1713
S':mod'
p1714
s(S'c'
S'n'
tp1715
S':name'
p1716
s(S'v'
S'none1'
tp1717
S':quant'
p1718
s(S'n'
S'none2'
tp1719
S':op1'
p1720
s(S'o'
S'v'
tp1721
S':op1'
p1722
s(S'b'
S'o'
tp1723
S':location'
p1724
s(S'm'
S'i'
tp1725
S':ARG1-of'
p1726
ssg82
(dp1727
I0
g29
sI1
VOne
p1728
sI2
Vof
p1729
sI3
Vthe
p1730
sI4
Vmissiles
p1731
sI5
Vbroke
p1732
sI6
Vup
p1733
sI7
Vover
p1734
sI8
Vtwo
p1735
sI9
VTurkish
p1736
sI10
Vvillages
p1737
sI11
V.
ssg101
S'::id PROXY_AFP_ENG_20050603_0056.5'
p1738
sg103
S'One of the missiles broke up over two Turkish villages.'
p1739
sg105
(dp1740
S'c'
(lp1741
S'0.1.0.1'
p1742
asS'b'
(lp1743
S'0'
asS'none2'
p1744
(lp1745
S'0.1.0.1.0.0'
p1746
asS'none1'
p1747
(lp1748
S'0.1.0.0'
p1749
asS'none0'
p1750
(lp1751
S'0.0.0'
p1752
asS'i'
(lp1753
S'0.0.1'
p1754
asg1692
(lp1755
S'0.0.1.0'
p1756
asS'm'
(lp1757
S'0.0'
p1758
asS'o'
(lp1759
S'0.1'
p1760
asS'n'
(lp1761
S'0.1.0.1.0'
p1762
asS'v'
(lp1763
S'0.1.0'
p1764
assg141
(dp1765
S'c'
S'country'
p1766
sS'b'
S'break'
p1767
sg1681
S'Turkey'
p1768
sg1683
S'2'
sg1685
S'1'
sS'i'
S'include'
p1769
sg59
g149
sS'v'
S'village'
p1770
sS'm'
S'missile'
p1771
sS'o'
S'over'
p1772
sS'n'
S'name'
p1773
sg1692
S'missile'
p1774
ssg160
(dp1775
(I10
I8
tp1776
S':nummod'
p1777
s(I5
I10
tp1778
S':nmod-over'
p1779
s(I5
I11
tp1780
S':punct'
p1781
s(I5
I6
tp1782
S':compound-prt'
p1783
s(I1
I4
tp1784
S':nmod-of'
p1785
s(I10
I7
tp1786
S':case'
p1787
s(I0
I5
tp1788
S':ROOT'
p1789
s(I4
I3
tp1790
S':det'
p1791
s(I4
I2
tp1792
S':case'
p1793
s(I5
I1
tp1794
S':nsubj'
p1795
s(I10
I9
tp1796
S':amod'
p1797
sssI9
(dp1798
g3
(dp1799
S'c'
S'0'
sS'g2'
p1800
S'0.0.0'
p1801
sS'g'
S'0.0'
p1802
ssg27
(dp1803
I0
g29
sI1
S'Government'
p1804
sI2
S'crackdown'
p1805
sI3
S'--'
p1806
ssg47
(dp1807
(S'c'
S'g'
tp1808
S':ARG1'
p1809
s(S'g'
g1800
tp1810
S':ARG0-of'
p1811
s(g59
S'c'
tp1812
g61
ssg82
(dp1813
I0
g29
sI1
VGovernment
p1814
sI2
Vcrackdown
p1815
sI3
V--
p1816
ssg101
S'::id PROXY_AFP_ENG_20050718_0646.16'
p1817
sg103
S'Government crackdown --'
p1818
sg105
(dp1819
S'c'
(lp1820
S'0'
asg1800
(lp1821
S'0.0.0'
p1822
asS'g'
(lp1823
S'0.0'
p1824
assg141
(dp1825
S'c'
S'crack'
p1826
sg59
g149
sg1800
S'govern'
p1827
sS'g'
S'government-organization'
p1828
ssg160
(dp1829
(I2
I3
tp1830
S':punct'
p1831
s(I0
I2
tp1832
S':ROOT'
p1833
s(I2
I1
tp1834
S':compound'
p1835
sssI10
(dp1836
g3
(dp1837
S'none7'
p1838
S'0.2.1.0.0'
p1839
sS'none6'
p1840
S'0.2.0.1.0.0.3'
p1841
sS'none5'
p1842
S'0.2.0.1.0.0.2'
p1843
sS'none4'
p1844
S'0.2.0.1.0.0.1'
p1845
sS'none3'
p1846
S'0.2.0.1.0.0.0'
p1847
sS'none2'
p1848
S'0.2.0.0.1'
p1849
sS'none1'
p1850
S'0.2.0.0.0'
p1851
sS'none0'
p1852
S'0.0'
p1853
sS'h2'
p1854
S'0.2.1.1'
p1855
sS'h3'
p1856
S'0.2.1.1.0.1'
p1857
sS'none9'
p1858
S'0.2.1.1.0.0.0'
p1859
sS'none8'
p1860
S'0.2.1.0.1'
p1861
sS'none13'
p1862
S'0.2.1.1.0.1.0.0.1'
p1863
sS'a'
S'0.2'
p1864
sS'none12'
p1865
S'0.2.1.1.0.1.0.0.0'
p1866
sS'a2'
p1867
S'0.1'
p1868
sS'c3'
p1869
S'0'
sS'p2'
p1870
S'0.2.1.1.0'
p1871
sS'p3'
p1872
S'0.2.1.1.0.1.0'
p1873
sS'p4'
p1874
S'0.2.0'
p1875
sS'p5'
p1876
S'0.2.1'
p1877
sS'h'
S'0.2.0.1'
p1878
sS'n'
S'0.2.0.0'
p1879
sS'p'
S'0.2.0.1.0'
p1880
sS'n2'
p1881
S'0.2.1.0'
p1882
sS'n3'
p1883
S'0.2.0.1.0.0'
p1884
sS'n4'
p1885
S'0.2.1.1.0.0'
p1886
sS'n5'
p1887
S'0.2.1.1.0.1.0.0'
p1888
sS'none11'
p1889
S'0.2.1.1.0.0.2'
p1890
sS'none10'
p1891
S'0.2.1.1.0.0.1'
p1892
ssg27
(dp1893
I0
g29
sI1
S'the'
p1894
sI2
S'2'
sI3
S'arrest'
p1895
sI4
S'candidate'
p1896
sI5
S'be'
p1897
sI6
S'Leoluca'
p1898
sI7
S'Lanza'
p1899
sI8
S'of'
p1900
sI9
S'the'
p1901
sI10
S'Christian-Democrats'
p1902
sI11
S'for'
p1903
sI12
S'Independence'
p1904
sI13
S'Party'
p1905
sI14
S'and'
p1906
sI15
S'Giovanni'
p1907
sI16
S'riina'
p1908
sI17
S'from'
p1909
sI18
S'Silvio'
p1910
sI19
S'Berlusconi'
p1911
sI20
S"'s"
p1912
sI21
S'Forza'
p1913
sI22
S'Italia'
p1914
sI23
S'party'
p1915
sI24
S'.'
ssg47
(dp1916
(g1881
S'none8'
tp1917
S':op2'
p1918
s(g1885
S'none10'
tp1919
S':op2'
p1920
s(g1874
S'h'
tp1921
S':ARG0-of'
p1922
s(S'p'
g1883
tp1923
S':name'
p1924
s(g1883
S'none6'
tp1925
S':op4'
p1926
s(g1887
S'none12'
tp1927
S':op1'
p1928
s(g1876
g1881
tp1929
S':name'
p1930
s(g59
g1869
tp1931
g61
s(g1881
S'none7'
tp1932
S':op1'
p1933
s(S'a'
g1874
tp1934
S':op1'
p1935
s(g1883
S'none3'
tp1936
S':op1'
p1937
s(g1885
S'none9'
tp1938
S':op1'
p1939
s(S'h'
S'p'
tp1940
S':ARG1'
p1941
s(g1869
g1867
tp1942
S':ARG1-of'
p1943
s(g1887
S'none13'
tp1944
S':op2'
p1945
s(S'a'
g1876
tp1946
S':op2'
p1947
s(S'n'
S'none1'
tp1948
S':op1'
p1949
s(g1885
S'none11'
tp1950
S':op3'
p1951
s(g1870
g1856
tp1952
S':ARG1-of'
p1953
s(g1872
g1887
tp1954
S':name'
p1955
s(g1876
g1854
tp1956
S':ARG0-of'
p1957
s(g1883
S'none4'
tp1958
S':op2'
p1959
s(g1870
g1885
tp1960
S':name'
p1961
s(g1869
S'a'
tp1962
S':domain'
p1963
s(g1869
S'none0'
tp1964
S':quant'
p1965
s(g1854
g1870
tp1966
S':ARG1'
p1967
s(g1856
g1872
tp1968
S':ARG0'
p1969
s(g1883
S'none5'
tp1970
S':op3'
p1971
s(S'n'
S'none2'
tp1972
S':op2'
p1973
s(g1874
S'n'
tp1974
S':name'
p1975
ssg82
(dp1976
I0
g29
sI1
VThe
p1977
sI2
V2
sI3
Varrested
p1978
sI4
Vcandidates
p1979
sI5
Vare
p1980
sI6
VLeoluca
p1981
sI7
VLanza
p1982
sI8
Vof
p1983
sI9
Vthe
p1984
sI10
VChristian-Democrats
p1985
sI11
Vfor
p1986
sI12
VIndependence
p1987
sI13
VParty
p1988
sI14
Vand
p1989
sI15
VGiovanni
p1990
sI16
Vriina
p1991
sI17
Vfrom
p1992
sI18
VSilvio
p1993
sI19
VBerlusconi
p1994
sI20
V's
p1995
sI21
VForza
p1996
sI22
VItalia
p1997
sI23
Vparty
p1998
sI24
V.
ssg101
S'::id PROXY_AFP_ENG_20070504_0296.7'
p1999
sg103
S"The 2 arrested candidates are Leoluca Lanza of the Christian-Democrats for Independence Party and Giovanni riina from Silvio Berlusconi's Forza Italia party."
p2000
sg105
(dp2001
S'none7'
p2002
(lp2003
S'0.2.1.0.0'
p2004
asS'none6'
p2005
(lp2006
S'0.2.0.1.0.0.3'
p2007
asS'none5'
p2008
(lp2009
S'0.2.0.1.0.0.2'
p2010
asS'none4'
p2011
(lp2012
S'0.2.0.1.0.0.1'
p2013
asS'none3'
p2014
(lp2015
S'0.2.0.1.0.0.0'
p2016
asS'none2'
p2017
(lp2018
S'0.2.0.0.1'
p2019
asS'none1'
p2020
(lp2021
S'0.2.0.0.0'
p2022
asS'none0'
p2023
(lp2024
S'0.0'
p2025
asg1854
(lp2026
S'0.2.1.1'
p2027
asg1856
(lp2028
S'0.2.1.1.0.1'
p2029
asS'none9'
p2030
(lp2031
S'0.2.1.1.0.0.0'
p2032
asS'none8'
p2033
(lp2034
S'0.2.1.0.1'
p2035
asS'a'
(lp2036
S'0.2'
p2037
asg1885
(lp2038
S'0.2.1.1.0.0'
p2039
asg1867
(lp2040
S'0.1'
p2041
asg1869
(lp2042
S'0'
asg1870
(lp2043
S'0.2.1.1.0'
p2044
asg1872
(lp2045
S'0.2.1.1.0.1.0'
p2046
asg1874
(lp2047
S'0.2.0'
p2048
asg1876
(lp2049
S'0.2.1'
p2050
asS'h'
(lp2051
S'0.2.0.1'
p2052
asg1887
(lp2053
S'0.2.1.1.0.1.0.0'
p2054
asS'n'
(lp2055
S'0.2.0.0'
p2056
asS'p'
(lp2057
S'0.2.0.1.0'
p2058
asg1881
(lp2059
S'0.2.1.0'
p2060
asg1883
(lp2061
S'0.2.0.1.0.0'
p2062
asS'none13'
p2063
(lp2064
S'0.2.1.1.0.1.0.0.1'
p2065
asS'none12'
p2066
(lp2067
S'0.2.1.1.0.1.0.0.0'
p2068
asS'none11'
p2069
(lp2070
S'0.2.1.1.0.0.2'
p2071
asS'none10'
p2072
(lp2073
S'0.2.1.1.0.0.1'
p2074
assg141
(dp2075
g1838
S'Giovanni'
p2076
sg1840
S'Party'
p2077
sg1842
S'Independence'
p2078
sg1844
S'for'
p2079
sg1846
S'Christian-Democrats'
p2080
sg1848
S'Lanza'
p2081
sg1850
S'Leoluca'
p2082
sg1852
S'2'
sg1854
S'have-org-role'
p2083
sg1856
S'have-org-role'
p2084
sg1858
S'Forza'
p2085
sg1860
S'Riina'
p2086
sg1862
S'Berlusconi'
p2087
sg59
g149
sS'a'
S'and'
p2088
sg1865
S'Silvio'
p2089
sg1867
S'arrest'
p2090
sg1869
S'candidate'
p2091
sg1870
S'political-party'
p2092
sg1872
S'person'
p2093
sg1874
S'person'
p2094
sg1876
S'person'
p2095
sS'h'
S'have-org-role'
p2096
sS'n'
S'name'
p2097
sS'p'
S'political-party'
p2098
sg1881
S'name'
p2099
sg1883
S'name'
p2100
sg1885
S'name'
p2101
sg1887
S'name'
p2102
sg1889
S'Party'
p2103
sg1891
S'Italia'
p2104
ssg160
(dp2105
(I10
I11
tp2106
S':compound'
p2107
s(I23
I22
tp2108
S':compound'
p2109
s(I18
I19
tp2110
S':name'
p2111
s(I6
I24
tp2112
S':punct'
p2113
s(I6
I14
tp2114
S':cc'
p2115
s(I10
I8
tp2116
S':case'
p2117
s(I6
I7
tp2118
S':name'
p2119
s(I15
I23
tp2120
S':nmod-from'
p2121
s(I23
I17
tp2122
S':case'
p2123
s(I6
I10
tp2124
S':nmod-of'
p2125
s(I10
I12
tp2126
S':compound'
p2127
s(I23
I21
tp2128
S':compound'
p2129
s(I15
I4
tp2130
S':nsubj'
p2131
s(I6
I15
tp2132
S':conj-and'
p2133
s(I18
I20
tp2134
S':case'
p2135
s(I10
I9
tp2136
S':det'
p2137
s(I6
I4
tp2138
S':nsubj'
p2139
s(I10
I13
tp2140
S':compound'
p2141
s(I4
I2
tp2142
S':nummod'
p2143
s(I6
I5
tp2144
S':cop'
p2145
s(I4
I1
tp2146
S':det'
p2147
s(I0
I6
tp2148
S':ROOT'
p2149
s(I4
I3
tp2150
S':amod'
p2151
s(I15
I16
tp2152
S':name'
p2153
s(I23
I18
tp2154
S':nmod-poss'
p2155
sssI11
(dp2156
g3
(dp2157
S'p2'
p2158
S'0.1.0.1'
p2159
sS'c'
S'0.1'
p2160
sS'b'
S'0.1.0.2.0'
p2161
sS'none1'
p2162
S'0.1.0.1.0.0'
p2163
sS'none0'
p2164
S'0.1.0.0.0.0'
p2165
sS'h'
S'0.0'
p2166
sS'm'
S'0.1.0'
p2167
sS'n'
S'0'
sS'p'
S'0.1.0.0'
p2168
sS's'
S'0.1.0.2'
p2169
sS'n2'
p2170
S'0.1.0.0.0'
p2171
sS'n3'
p2172
S'0.1.0.1.0'
p2173
ssg27
(dp2174
I0
g29
sI1
S'he'
p2175
sI2
S'need'
p2176
sI3
S'to'
p2177
sI4
S'conduct'
p2178
sI5
S'a'
sI6
S'beer'
p2179
sI7
S'summit'
p2180
sI8
S'between'
p2181
sI9
S'Palin'
p2182
sI10
S'and'
p2183
sI11
S'NBC'
p2184
sI12
S'.'
ssg47
(dp2185
(g2158
g2172
tp2186
S':name'
p2187
s(S's'
S'b'
tp2188
S':mod'
p2189
s(S'n'
S'c'
tp2190
S':ARG1'
p2191
s(S'c'
S'h'
tp2192
S':ARG0'
p2193
s(S'm'
g2158
tp2194
S':ARG1'
p2195
s(g2172
S'none1'
tp2196
S':op1'
p2197
s(g59
S'n'
tp2198
g61
s(g2170
S'none0'
tp2199
S':op1'
p2200
s(S'm'
S's'
tp2201
S':mod'
p2202
s(S'm'
S'p'
tp2203
S':ARG0'
p2204
s(S'c'
S'm'
tp2205
S':ARG1'
p2206
s(S'n'
S'h'
tp2207
S':ARG0'
p2208
s(S'p'
g2170
tp2209
S':name'
p2210
ssg82
(dp2211
I0
g29
sI1
VHe
p2212
sI2
Vneeds
p2213
sI3
Vto
p2214
sI4
Vconduct
p2215
sI5
Va
sI6
Vbeer
p2216
sI7
Vsummit
p2217
sI8
Vbetween
p2218
sI9
VPalin
p2219
sI10
Vand
p2220
sI11
VNBC
p2221
sI12
V.
ssg101
S'::id DF-170-181103-888_2097.5'
p2222
sg103
S'He needs to conduct a beer summit between Palin and NBC.'
p2223
sg105
(dp2224
g2158
(lp2225
S'0.1.0.1'
p2226
asS'c'
(lp2227
S'0.1'
p2228
asS'b'
(lp2229
S'0.1.0.2.0'
p2230
asS'none1'
p2231
(lp2232
S'0.1.0.1.0.0'
p2233
asS'none0'
p2234
(lp2235
S'0.1.0.0.0.0'
p2236
asS'h'
(lp2237
S'0.0'
p2238
asS'm'
(lp2239
S'0.1.0'
p2240
asS'n'
(lp2241
S'0'
asS'p'
(lp2242
S'0.1.0.0'
p2243
asS's'
(lp2244
S'0.1.0.2'
p2245
asg2170
(lp2246
S'0.1.0.0.0'
p2247
asg2172
(lp2248
S'0.1.0.1.0'
p2249
assg141
(dp2250
g2158
S'publication'
p2251
sS'c'
S'conduct'
p2252
sS'b'
S'beer'
p2253
sg2162
S'NBC'
p2254
sg2164
S'Palin'
p2255
sS'h'
S'he'
p2256
sg59
g149
sS'm'
S'meet'
p2257
sS'n'
S'need'
p2258
sS'p'
S'person'
p2259
sS's'
S'summit'
p2260
sg2170
S'name'
p2261
sg2172
S'name'
p2262
ssg160
(dp2263
(I4
I7
tp2264
S':dobj'
p2265
s(I7
I6
tp2266
S':compound'
p2267
s(I2
I1
tp2268
S':nsubj'
p2269
s(I2
I4
tp2270
S':xcomp'
p2271
s(I9
I10
tp2272
S':cc'
p2273
s(I7
I5
tp2274
S':det'
p2275
s(I2
I12
tp2276
S':punct'
p2277
s(I4
I3
tp2278
S':mark'
p2279
s(I7
I11
tp2280
S':nmod-between'
p2281
s(I9
I11
tp2282
S':conj-and'
p2283
s(I9
I8
tp2284
S':case'
p2285
s(I4
I1
tp2286
S':nsubj'
p2287
s(I0
I2
tp2288
S':ROOT'
p2289
s(I7
I9
tp2290
S':nmod-between'
p2291
sssI12
(dp2292
g3
(dp2293
S'i'
S'0.0'
p2294
sS'y'
S'0.1.0'
p2295
sS'c'
S'0.1'
p2296
sS't'
S'0'
sS'a'
S'0.1.1'
p2297
ssg27
(dp2298
I0
g29
sI1
S'of'
p2299
sI2
S'what'
p2300
sI3
S'be'
p2301
sI4
S'I'
sI5
S'try'
p2302
sI6
S'to'
p2303
sI7
S'convince'
p2304
sI8
S'you'
p2305
sI9
S'?'
ssg47
(dp2306
(S'c'
S'i'
tp2307
S':ARG0'
p2308
s(S't'
S'c'
tp2309
S':ARG1'
p2310
s(S't'
S'i'
tp2311
S':ARG0'
p2312
s(S'c'
S'a'
tp2313
S':ARG2'
p2314
s(g59
S't'
tp2315
g61
s(S'c'
S'y'
tp2316
S':ARG1'
p2317
ssg82
(dp2318
I0
g29
sI1
VOf
p2319
sI2
Vwhat
p2320
sI3
VAm
p2321
sI4
VI
sI5
Vtrying
p2322
sI6
Vto
p2323
sI7
Vconvince
p2324
sI8
Vyou
p2325
sI9
V?
ssg101
S'::id DF-183-195681-794_9722.13'
p2326
sg103
S'Of what Am I trying to convince you?'
p2327
sg105
(dp2328
S'i'
(lp2329
S'0.0'
p2330
asS'y'
(lp2331
S'0.1.0'
p2332
asS'c'
(lp2333
S'0.1'
p2334
asS't'
(lp2335
S'0'
asS'a'
(lp2336
S'0.1.1'
p2337
assg141
(dp2338
S'a'
S'amr-unknown'
p2339
sS'c'
S'convince'
p2340
sS'i'
S'i'
sg59
g149
sS't'
S'try'
p2341
sS'y'
S'you'
p2342
ssg160
(dp2343
(I5
I9
tp2344
S':punct'
p2345
s(I5
I4
tp2346
S':nsubj'
p2347
s(I7
I6
tp2348
S':mark'
p2349
s(I5
I7
tp2350
S':xcomp'
p2351
s(I2
I1
tp2352
S':case'
p2353
s(I7
I4
tp2354
S':nsubj'
p2355
s(I0
I5
tp2356
S':ROOT'
p2357
s(I7
I8
tp2358
S':dobj'
p2359
s(I7
I2
tp2360
S':nmod-of'
p2361
s(I5
I3
tp2362
S':aux'
p2363
sssI13
(dp2364
g3
(dp2365
S'a'
S'0.1.0'
p2366
sS'e'
S'0.1.1.1.0'
p2367
sS'none1'
p2368
S'0.1.1.0'
p2369
sS'none0'
p2370
S'0.1.0.1.0.0'
p2371
sS'i'
S'0.0'
p2372
sS'm'
S'0.1.0.1.0'
p2373
sS'a3'
p2374
S'0.1'
p2375
sS'o'
S'0.1.1.1'
p2376
sS's'
S'0.1.0.1'
p2377
sS'r'
S'0.1.1.1.0.0'
p2378
sS't'
S'0'
sS'y'
S'0.1.0.0'
p2379
sS'o2'
p2380
S'0.1.1.1.1'
p2381
sS'a4'
p2382
S'0.1.1'
p2383
ssg27
(dp2384
I0
g29
sI1
S'I'
sI2
S'think'
p2385
sI3
S'you'
p2386
sI4
S'be'
p2387
sI5
S'answer'
p2388
sI6
S'if'
p2389
sI7
S'two'
p2390
sI8
S'man'
p2391
sI9
S'be'
p2392
sI10
S'the'
p2393
sI11
S'``'
p2394
sI12
S'same'
p2395
sI13
S"''"
p2396
sI14
S'and'
p2397
sI15
S'not'
p2398
sI16
S'necessarily'
p2399
sI17
S'if'
p2400
sI18
S'they'
p2401
sI19
S'be'
p2402
sI20
S'equal'
p2403
sI21
S'in'
p2404
sI22
S'rights'
p2405
sI23
S'or'
p2406
sI24
S'should'
p2407
sI25
S'be'
p2408
sI26
S'.'
ssg47
(dp2409
(g2382
S'o'
tp2410
S':ARG1'
p2411
s(g2374
S'a'
tp2412
S':op1'
p2413
s(S's'
S'm'
tp2414
S':ARG1'
p2415
s(S'e'
S'r'
tp2416
S':mod'
p2417
s(g59
S't'
tp2418
g61
s(S'o'
S'e'
tp2419
S':op1'
p2420
s(S'm'
S'none0'
tp2421
S':quant'
p2422
s(S'a'
S'y'
tp2423
S':ARG0'
p2424
s(S'a'
S's'
tp2425
S':ARG1'
p2426
s(S't'
S'i'
tp2427
S':ARG0'
p2428
s(g2380
S'm'
tp2429
S':ARG1'
p2430
s(S'e'
S'm'
tp2431
S':ARG1'
p2432
s(S'o'
g2380
tp2433
S':op2'
p2434
s(g2382
S'none1'
tp2435
S':polarity'
p2436
s(g2374
g2382
tp2437
S':op2'
p2438
s(S't'
g2374
tp2439
S':ARG1'
p2440
s(g2380
S'e'
tp2441
S':ARG2'
p2442
s(g2382
S'y'
tp2443
S':ARG0'
p2444
ssg82
(dp2445
I0
g29
sI1
VI
sI2
Vthink
p2446
sI3
Vyou
p2447
sI4
Vare
p2448
sI5
Vanswering
p2449
sI6
Vif
p2450
sI7
Vtwo
p2451
sI8
Vmen
p2452
sI9
Vare
p2453
sI10
Vthe
p2454
sI11
V``
p2455
sI12
Vsame
p2456
sI13
V''
p2457
sI14
Vand
p2458
sI15
Vnot
p2459
sI16
Vnecessarily
p2460
sI17
Vif
p2461
sI18
Vthey
p2462
sI19
Vare
p2463
sI20
Vequal
p2464
sI21
Vin
p2465
sI22
Vrights
p2466
sI23
Vor
p2467
sI24
Vshould
p2468
sI25
Vbe
p2469
sI26
V.
ssg101
S'::id DF-199-192772-680_8771.3'
p2470
sg103
S'I think you are answering if two men are the "same" and not necessarily if they are equal in rights or should be.'
p2471
sg105
(dp2472
S'a'
(lp2473
S'0.1.0'
p2474
asS'e'
(lp2475
S'0.1.1.1.0'
p2476
asS'none1'
p2477
(lp2478
S'0.1.1.0'
p2479
asS'none0'
p2480
(lp2481
S'0.1.0.1.0.0'
p2482
asS'i'
(lp2483
S'0.0'
p2484
asS'm'
(lp2485
S'0.1.0.1.0'
p2486
asS's'
(lp2487
S'0.1.0.1'
p2488
asS'o'
(lp2489
S'0.1.1.1'
p2490
asg2374
(lp2491
S'0.1'
p2492
asS'r'
(lp2493
S'0.1.1.1.0.0'
p2494
asS't'
(lp2495
S'0'
asS'y'
(lp2496
S'0.1.0.0'
p2497
asg2380
(lp2498
S'0.1.1.1.1'
p2499
asg2382
(lp2500
S'0.1.1'
p2501
assg141
(dp2502
S'a'
S'answer'
p2503
sS'e'
S'equal'
p2504
sg2368
S'-'
sg2370
S'2'
sS'i'
S'i'
sg59
g149
sS'm'
S'men'
p2505
sg2374
S'and'
p2506
sS'o'
S'or'
p2507
sS's'
S'same'
p2508
sS'r'
S'right'
p2509
sS't'
S'think'
p2510
sS'y'
S'you'
p2511
sg2380
S'obligate'
p2512
sg2382
S'answer'
p2513
ssg160
(dp2514
(I20
I25
tp2515
S':conj-or'
p2516
s(I20
I19
tp2517
S':cop'
p2518
s(I2
I1
tp2519
S':nsubj'
p2520
s(I2
I5
tp2521
S':ccomp'
p2522
s(I20
I17
tp2523
S':mark'
p2524
s(I20
I22
tp2525
S':nmod-in'
p2526
s(I12
I20
tp2527
S':conj-and'
p2528
s(I8
I7
tp2529
S':nummod'
p2530
s(I12
I13
tp2531
S':punct'
p2532
s(I12
I9
tp2533
S':cop'
p2534
s(I5
I12
tp2535
S':advcl'
p2536
s(I12
I6
tp2537
S':mark'
p2538
s(I20
I18
tp2539
S':nsubj'
p2540
s(I2
I26
tp2541
S':punct'
p2542
s(I22
I21
tp2543
S':case'
p2544
s(I5
I4
tp2545
S':aux'
p2546
s(I12
I14
tp2547
S':cc'
p2548
s(I25
I18
tp2549
S':nsubj'
p2550
s(I12
I25
tp2551
S':advcl'
p2552
s(I12
I11
tp2553
S':punct'
p2554
s(I12
I10
tp2555
S':det'
p2556
s(I5
I3
tp2557
S':nsubj'
p2558
s(I20
I23
tp2559
S':cc'
p2560
s(I5
I16
tp2561
S':advcl'
p2562
s(I25
I24
tp2563
S':aux'
p2564
s(I5
I20
tp2565
S':advcl'
p2566
s(I20
I15
tp2567
S':neg'
p2568
s(I12
I8
tp2569
S':nsubj'
p2570
s(I0
I2
tp2571
S':ROOT'
p2572
s(I20
I16
tp2573
S':advmod'
p2574
sssI14
(dp2575
g3
(dp2576
S'p2'
p2577
S'0.0.1.0.0.0'
p2578
sS'a'
S'0'
sS'g'
S'0.0.1.1'
p2579
sS'i'
S'0.0.1.3.0'
p2580
sS'h'
S'0.0.1.0.0'
p2581
sS'i3'
p2582
S'0.0.1.2'
p2583
sS'a3'
p2584
S'0.0.1.1.0'
p2585
sS'p'
S'0.0.1.0'
p2586
sS's'
S'0.1'
p2587
sS'a2'
p2588
S'0.0.1'
p2589
sS'v'
S'0.0'
p2590
sS'y'
S'0.0.0'
p2591
sS'c2'
p2592
S'0.0.1.2.0'
p2593
sS'r'
S'0.2'
p2594
sS'o2'
p2595
S'0.0.1.2.1'
p2596
sS'e2'
p2597
S'0.0.1.3'
p2598
ssg27
(dp2599
I0
g29
sI1
S'you'
p2600
sI2
S'repeatedly'
p2601
sI3
S'vote'
p2602
sI4
S'for'
p2603
sI5
S'and'
p2604
sI6
S'support'
p2605
sI7
S'a'
sI8
S'president'
p2606
sI9
S'and'
p2607
sI10
S'a'
sI11
S'administration'
p2608
sI12
S'who'
p2609
sI13
S'be'
p2610
sI14
S'clearly'
p2611
sI15
S'and'
p2612
sI16
S'obviously'
p2613
sI17
S'incompetent'
p2614
sI18
S'and'
p2615
sI19
S'ideologically'
p2616
sI20
S'extreme'
p2617
sI21
S'.'
ssg47
(dp2618
(S'v'
g2588
tp2619
S':ARG1'
p2620
s(S'h'
g2577
tp2621
S':ARG2'
p2622
s(S'g'
g2584
tp2623
S':ARG0-of'
p2624
s(g2597
S'i'
tp2625
S':mod'
p2626
s(S'p'
S'h'
tp2627
S':ARG0-of'
p2628
s(g2588
S'g'
tp2629
S':op2'
p2630
s(g2588
g2597
tp2631
S':mod'
p2632
s(S's'
S'y'
tp2633
S':ARG0'
p2634
s(S'a'
S'r'
tp2635
S':ARG1-of'
p2636
s(g2588
S'p'
tp2637
S':op1'
p2638
s(S'a'
S's'
tp2639
S':op2'
p2640
s(g2582
g2592
tp2641
S':mod'
p2642
s(S's'
S'a2'
tp2643
S':ARG1'
p2644
s(g59
S'a'
tp2645
g61
s(g2588
g2582
tp2646
S':mod'
p2647
s(S'v'
S'y'
tp2648
S':ARG0'
p2649
s(g2582
g2595
tp2650
S':mod'
p2651
s(S'a'
S'v'
tp2652
S':op1'
p2653
ssg82
(dp2654
I0
g29
sI1
VYou
p2655
sI2
Vrepeatedly
p2656
sI3
Vvoted
p2657
sI4
Vfor
p2658
sI5
Vand
p2659
sI6
Vsupported
p2660
sI7
Va
sI8
Vpresident
p2661
sI9
Vand
p2662
sI10
Van
p2663
sI11
Vadministration
p2664
sI12
Vwho
p2665
sI13
Vwas
p2666
sI14
Vclearly
p2667
sI15
Vand
p2668
sI16
Vobviously
p2669
sI17
Vincompetent
p2670
sI18
Vand
p2671
sI19
Videologically
p2672
sI20
Vextreme
p2673
sI21
V.
ssg101
S'::id DF-199-192783-685_0989.33'
p2674
sg103
S'You repeatedly voted for and supported a president and an administration who was clearly and obviously incompetent and ideologically extreme.'
p2675
sg105
(dp2676
g2577
(lp2677
S'0.0.1.0.0.0'
p2678
asS'a'
(lp2679
S'0'
asS'g'
(lp2680
S'0.0.1.1'
p2681
asS'i'
(lp2682
S'0.0.1.3.0'
p2683
asS'h'
(lp2684
S'0.0.1.0.0'
p2685
asg2582
(lp2686
S'0.0.1.2'
p2687
asS's'
(lp2688
S'0.1'
p2689
asS'p'
(lp2690
S'0.0.1.0'
p2691
asg2584
(lp2692
S'0.0.1.1.0'
p2693
asg2588
(lp2694
S'0.0.1'
p2695
asS'v'
(lp2696
S'0.0'
p2697
asS'y'
(lp2698
S'0.0.0'
p2699
asg2592
(lp2700
S'0.0.1.2.0'
p2701
asS'r'
(lp2702
S'0.2'
p2703
asg2595
(lp2704
S'0.0.1.2.1'
p2705
asg2597
(lp2706
S'0.0.1.3'
p2707
assg141
(dp2708
g2577
S'president'
p2709
sS'a'
S'and'
p2710
sS'g'
S'government-organization'
p2711
sS'i'
S'ideology'
p2712
sS'h'
S'have-org-role'
p2713
sg2582
S'incompetence'
p2714
sg59
g149
sg2584
S'administrate'
p2715
sS'p'
S'person'
p2716
sS's'
S'support'
p2717
sg2588
S'and'
p2718
sS'v'
S'vote'
p2719
sS'y'
S'you'
p2720
sg2592
S'clear'
p2721
sS'r'
S'repeat'
p2722
sg2595
S'obvious'
p2723
sg2597
S'extreme'
p2724
ssg160
(dp2725
(I20
I19
tp2726
S':advmod'
p2727
s(I3
I11
tp2728
S':dobj'
p2729
s(I17
I20
tp2730
S':conj-and'
p2731
s(I3
I21
tp2732
S':punct'
p2733
s(I8
I9
tp2734
S':cc'
p2735
s(I0
I3
tp2736
S':ROOT'
p2737
s(I11
I10
tp2738
S':det'
p2739
s(I3
I6
tp2740
S':conj-and'
p2741
s(I3
I5
tp2742
S':cc'
p2743
s(I17
I14
tp2744
S':advmod'
p2745
s(I3
I2
tp2746
S':advmod'
p2747
s(I6
I11
tp2748
S':dobj'
p2749
s(I8
I11
tp2750
S':conj-and'
p2751
s(I14
I15
tp2752
S':cc'
p2753
s(I8
I7
tp2754
S':det'
p2755
s(I8
I17
tp2756
S':acl-relcl'
p2757
s(I17
I13
tp2758
S':cop'
p2759
s(I6
I8
tp2760
S':dobj'
p2761
s(I17
I18
tp2762
S':cc'
p2763
s(I14
I16
tp2764
S':conj-and'
p2765
s(I8
I12
tp2766
S':ref'
p2767
s(I6
I1
tp2768
S':nsubj'
p2769
s(I3
I1
tp2770
S':nsubj'
p2771
s(I3
I8
tp2772
S':dobj'
p2773
s(I3
I4
tp2774
S':nmod'
p2775
sssI15
(dp2776
g3
(dp2777
S'o2'
p2778
S'0.1.1.1'
p2779
sS'c'
S'0'
sS'b'
S'0.1.0'
p2780
sS'd'
S'0.0'
p2781
sS'none0'
p2782
S'0.1.0.1.1.0.0'
p2783
sS'i'
S'0.0.0'
p2784
sS'i2'
p2785
S'0.1.0.0'
p2786
sS'm'
S'0.1.1.0'
p2787
sS'o'
S'0.1.0.1.1'
p2788
sS'n'
S'0.0.2'
p2789
sS'a3'
p2790
S'0.1'
p2791
sS'r'
S'0.1.1'
p2792
sS'a4'
p2793
S'0.0.2.0.0'
p2794
sS'w'
S'0.0.2.0'
p2795
sS'y'
S'0.1.0.1.1.0.1'
p2796
sS'b2'
p2797
S'0.1.0.1'
p2798
sS'y2'
p2799
S'0.0.1'
p2800
sS'n2'
p2801
S'0.1.0.1.0'
p2802
sS't'
S'0.1.0.1.1.0'
p2803
ssg27
(dp2804
I0
g29
sI1
S'while'
p2805
sI2
S'I'
sI3
S'disagree'
p2806
sI4
S'with'
p2807
sI5
S'you'
p2808
sI6
S'that'
p2809
sI7
S'we'
p2810
sI8
S'would'
p2811
sI9
S'all'
p2812
sI10
S'be'
p2813
sI11
S'Nazis'
p2814
sI12
S','
sI13
S'it'
p2815
sI14
S'be'
p2816
sI15
S'over'
p2817
sI16
S'60'
p2818
sI17
S'year'
p2819
sI18
S'ago'
p2820
sI19
S','
sI20
S'and'
p2821
sI21
S'the'
p2822
sI22
S'man'
p2823
sI23
S'have'
p2824
sI24
S'obviously'
p2825
sI25
S'reform'
p2826
sI26
S'.'
ssg47
(dp2827
(S'n'
S'w'
tp2828
S':domain'
p2829
s(g2790
S'b'
tp2830
S':op1'
p2831
s(S'b'
g2797
tp2832
S':ARG2'
p2833
s(S'c'
g2790
tp2834
S':ARG2'
p2835
s(g2797
g2801
tp2836
S':op1'
p2837
s(S'b'
g2785
tp2838
S':ARG1'
p2839
s(g2797
S'o'
tp2840
S':quant'
p2841
s(S'r'
g2778
tp2842
S':ARG1-of'
p2843
s(S'd'
S'n'
tp2844
S':ARG2'
p2845
s(g2790
S'r'
tp2846
S':op2'
p2847
s(S'd'
S'i'
tp2848
S':ARG0'
p2849
s(S'o'
S't'
tp2850
S':op1'
p2851
s(S'd'
g2799
tp2852
S':ARG1'
p2853
s(S'r'
S'm'
tp2854
S':ARG1'
p2855
s(S'c'
S'd'
tp2856
S':ARG1'
p2857
s(S't'
S'none0'
tp2858
S':quant'
p2859
s(S't'
S'y'
tp2860
S':unit'
p2861
s(S'w'
g2793
tp2862
S':mod'
p2863
s(g59
S'c'
tp2864
g61
ssg82
(dp2865
I0
g29
sI1
VWhile
p2866
sI2
VI
sI3
Vdisagree
p2867
sI4
Vwith
p2868
sI5
Vyou
p2869
sI6
Vthat
p2870
sI7
Vwe
p2871
sI8
V'd
p2872
sI9
Vall
p2873
sI10
Vbe
p2874
sI11
VNazis
p2875
sI12
V,
sI13
Vit
p2876
sI14
Vwas
p2877
sI15
Vover
p2878
sI16
V60
p2879
sI17
Vyears
p2880
sI18
Vago
p2881
sI19
V,
sI20
Vand
p2882
sI21
Vthe
p2883
sI22
Vman
p2884
sI23
Vhas
p2885
sI24
Vobviously
p2886
sI25
Vreformed
p2887
sI26
V.
ssg101
S'::id DF-199-192784-587_5251.8'
p2888
sg103
S"While I disagree with you that we'd all be Nazis, it was over 60 years ago, and the man has obviously reformed."
p2889
sg105
(dp2890
S'c'
(lp2891
S'0'
asS'b'
(lp2892
S'0.1.0'
p2893
asS'd'
(lp2894
S'0.0'
p2895
asS'none0'
p2896
(lp2897
S'0.1.0.1.1.0.0'
p2898
asS'i'
(lp2899
S'0.0.0'
p2900
asg2785
(lp2901
S'0.1.0.0'
p2902
asS'm'
(lp2903
S'0.1.1.0'
p2904
asS'o'
(lp2905
S'0.1.0.1.1'
p2906
asS'n'
(lp2907
S'0.0.2'
p2908
asS'w'
(lp2909
S'0.0.2.0'
p2910
asg2790
(lp2911
S'0.1'
p2912
asS'r'
(lp2913
S'0.1.1'
p2914
asg2793
(lp2915
S'0.0.2.0.0'
p2916
asg2797
(lp2917
S'0.1.0.1'
p2918
asS'y'
(lp2919
S'0.1.0.1.1.0.1'
p2920
asg2801
(lp2921
S'0.1.0.1.0'
p2922
asg2799
(lp2923
S'0.0.1'
p2924
asg2778
(lp2925
S'0.1.1.1'
p2926
asS't'
(lp2927
S'0.1.0.1.1.0'
p2928
assg141
(dp2929
g2778
S'obvious'
p2930
sS'c'
S'contrast'
p2931
sS'b'
S'be-temporally-at'
p2932
sS'd'
S'disagree'
p2933
sg2782
S'60'
p2934
sS'i'
S'i'
sg59
g149
sg2785
S'it'
p2935
sS'm'
S'man'
p2936
sS'o'
S'over'
p2937
sS'n'
S'nazis'
p2938
sg2790
S'and'
p2939
sS'r'
S'reform'
p2940
sg2793
S'all'
p2941
sS'w'
S'we'
p2942
sS'y'
S'year'
p2943
sg2797
S'before'
p2944
sg2799
S'you'
p2945
sg2801
S'now'
p2946
sS't'
S'temporal-quantity'
p2947
ssg160
(dp2948
(I5
I4
tp2949
S':case'
p2950
s(I17
I20
tp2951
S':cc'
p2952
s(I17
I3
tp2953
S':advcl'
p2954
s(I17
I25
tp2955
S':conj-and'
p2956
s(I17
I16
tp2957
S':nummod'
p2958
s(I25
I23
tp2959
S':aux'
p2960
s(I11
I10
tp2961
S':cop'
p2962
s(I0
I17
tp2963
S':ROOT'
p2964
s(I16
I15
tp2965
S':advmod'
p2966
s(I25
I22
tp2967
S':nsubjpass'
p2968
s(I22
I21
tp2969
S':det'
p2970
s(I3
I2
tp2971
S':nsubj'
p2972
s(I17
I19
tp2973
S':punct'
p2974
s(I11
I9
tp2975
S':advmod'
p2976
s(I3
I11
tp2977
S':ccomp'
p2978
s(I17
I13
tp2979
S':nsubj'
p2980
s(I3
I5
tp2981
S':nmod-with'
p2982
s(I17
I18
tp2983
S':advmod'
p2984
s(I11
I7
tp2985
S':nsubj'
p2986
s(I11
I8
tp2987
S':aux'
p2988
s(I17
I14
tp2989
S':cop'
p2990
s(I25
I24
tp2991
S':advmod'
p2992
s(I3
I1
tp2993
S':mark'
p2994
s(I17
I12
tp2995
S':punct'
p2996
s(I17
I26
tp2997
S':punct'
p2998
s(I11
I6
tp2999
S':mark'
p3000
sssI16
(dp3001
g3
(dp3002
S'd'
S'0.3'
p3003
sS'none0'
p3004
S'0.0'
p3005
sS'i'
S'0.1'
p3006
sS's2'
p3007
S'0.2'
p3008
sS'n'
S'0.3.0'
p3009
sS's'
S'0'
sS't'
S'0.3.1'
p3010
sS'w'
S'0.2.1'
p3011
sS'h'
S'0.2.0'
p3012
ssg27
(dp3013
I0
g29
sI1
S'that'
p3014
sI2
S'night'
p3015
sI3
S'I'
sI4
S'do'
p3016
sI5
S'not'
p3017
sI6
S'see'
p3018
sI7
S'he'
p3019
sI8
S'set'
p3020
sI9
S'out'
p3021
sI10
S'on'
p3022
sI11
S'he'
p3023
sI12
S'way'
p3024
sI13
S'.'
ssg47
(dp3025
(S's'
S'd'
tp3026
S':time'
p3027
s(g3007
S'w'
tp3028
S':ARG1'
p3029
s(g3007
S'h'
tp3030
S':ARG0'
p3031
s(g59
S's'
tp3032
g61
s(S's'
S'none0'
tp3033
S':polarity'
p3034
s(S'w'
S'h'
tp3035
S':poss'
p3036
s(S'd'
S'n'
tp3037
S':dayperiod'
p3038
s(S'd'
S't'
tp3039
S':mod'
p3040
s(S's'
g3007
tp3041
S':ARG1'
p3042
s(S's'
S'i'
tp3043
S':ARG0'
p3044
ssg82
(dp3045
I0
g29
sI1
VThat
p3046
sI2
Vnight
p3047
sI3
VI
sI4
Vdid
p3048
sI5
Vnot
p3049
sI6
Vsee
p3050
sI7
Vhim
p3051
sI8
Vset
p3052
sI9
Vout
p3053
sI10
Von
p3054
sI11
Vhis
p3055
sI12
Vway
p3056
sI13
V.
ssg101
S'::id lpp_1943.1481'
p3057
sg103
S'That night I did not see him set out on his way .'
p3058
sg105
(dp3059
S'd'
(lp3060
S'0.3'
p3061
asS'none0'
p3062
(lp3063
S'0.0'
p3064
asS'i'
(lp3065
S'0.1'
p3066
asg3007
(lp3067
S'0.2'
p3068
asS'n'
(lp3069
S'0.3.0'
p3070
asS's'
(lp3071
S'0'
asS't'
(lp3072
S'0.3.1'
p3073
asS'w'
(lp3074
S'0.2.1'
p3075
asS'h'
(lp3076
S'0.2.0'
p3077
assg141
(dp3078
S'd'
S'date-entity'
p3079
sg3004
S'-'
sS'i'
S'i'
sg3007
S'set-out'
p3080
sg59
g149
sS'n'
S'night'
p3081
sS's'
S'see'
p3082
sS't'
S'that'
p3083
sS'w'
S'way'
p3084
sS'h'
S'he'
p3085
ssg160
(dp3086
(I6
I4
tp3087
S':aux'
p3088
s(I2
I6
tp3089
S':acl-relcl'
p3090
s(I6
I8
tp3091
S':ccomp'
p3092
s(I8
I12
tp3093
S':nmod-on'
p3094
s(I12
I11
tp3095
S':nmod-poss'
p3096
s(I2
I1
tp3097
S':det'
p3098
s(I6
I3
tp3099
S':nsubj'
p3100
s(I2
I13
tp3101
S':punct'
p3102
s(I8
I7
tp3103
S':nsubj'
p3104
s(I12
I10
tp3105
S':case'
p3106
s(I8
I9
tp3107
S':compound-prt'
p3108
s(I0
I2
tp3109
S':ROOT'
p3110
s(I6
I5
tp3111
S':neg'
p3112
sssI17
(dp3113
g3
(dp3114
S'a'
S'0.1'
p3115
sS's2'
p3116
S'0.0'
p3117
sS'm'
S'0.0.1'
p3118
sS's'
S'0'
sS'v'
S'0.0.1.0'
p3119
sS'y'
S'0.0.0'
p3120
ssg27
(dp3121
I0
g29
sI1
S'at'
p3122
sI2
S'first'
p3123
sI3
S'you'
p3124
sI4
S'seem'
p3125
sI5
S'to'
p3126
sI6
S'be'
p3127
sI7
S'very'
p3128
sI8
S'much'
p3129
sI9
S'surprised'
p3130
sI10
S'.'
ssg47
(dp3131
(S's'
S'a'
tp3132
S':time'
p3133
s(g59
S's'
tp3134
g61
s(S's'
g3116
tp3135
S':ARG1'
p3136
s(S'm'
S'v'
tp3137
S':degree'
p3138
s(g3116
S'y'
tp3139
S':ARG1'
p3140
s(g3116
S'm'
tp3141
S':degree'
p3142
ssg82
(dp3143
I0
g29
sI1
VAt
p3144
sI2
Vfirst
p3145
sI3
Vyou
p3146
sI4
Vseemed
p3147
sI5
Vto
p3148
sI6
Vbe
p3149
sI7
Vvery
p3150
sI8
Vmuch
p3151
sI9
Vsurprised
p3152
sI10
V.
ssg101
S'::id lpp_1943.275'
p3153
sg103
S'At first you seemed to be very much surprised .'
p3154
sg105
(dp3155
S'a'
(lp3156
S'0.1'
p3157
asg3116
(lp3158
S'0.0'
p3159
asS'm'
(lp3160
S'0.0.1'
p3161
asS's'
(lp3162
S'0'
asS'v'
(lp3163
S'0.0.1.0'
p3164
asS'y'
(lp3165
S'0.0.0'
p3166
assg141
(dp3167
S'a'
S'at-first'
p3168
sg3116
S'surprise'
p3169
sg59
g149
sS'm'
S'much'
p3170
sS's'
S'seem'
p3171
sS'v'
S'very'
p3172
sS'y'
S'you'
p3173
ssg160
(dp3174
(I4
I10
tp3175
S':punct'
p3176
s(I4
I9
tp3177
S':xcomp'
p3178
s(I8
I7
tp3179
S':advmod'
p3180
s(I9
I8
tp3181
S':advmod'
p3182
s(I9
I3
tp3183
S':nsubj'
p3184
s(I2
I1
tp3185
S':case'
p3186
s(I0
I4
tp3187
S':ROOT'
p3188
s(I4
I3
tp3189
S':nsubj'
p3190
s(I9
I5
tp3191
S':mark'
p3192
s(I4
I2
tp3193
S':nmod-at'
p3194
s(I9
I6
tp3195
S':cop'
p3196
sssI18
(dp3197
g3
(dp3198
S'c'
S'0.2.1'
p3199
sS'none0'
p3200
S'0.0'
p3201
sS's2'
p3202
S'0.2'
p3203
sS's'
S'0.1'
p3204
sS'w'
S'0'
sS'h'
S'0.2.0'
p3205
ssg27
(dp3206
I0
g29
sI1
S'for'
p3207
sI2
S'she'
p3208
sI3
S'do'
p3209
sI4
S'not'
p3210
sI5
S'want'
p3211
sI6
S'he'
p3212
sI7
S'to'
p3213
sI8
S'see'
p3214
sI9
S'she'
p3215
sI10
S'cry'
p3216
sI11
S'.'
ssg47
(dp3217
(S'c'
S's'
tp3218
S':ARG0'
p3219
s(g3202
S'c'
tp3220
S':ARG1'
p3221
s(g3202
S'h'
tp3222
S':ARG0'
p3223
s(S'w'
g3202
tp3224
S':ARG1'
p3225
s(S'w'
S's'
tp3226
S':ARG0'
p3227
s(S'w'
S'none0'
tp3228
S':polarity'
p3229
s(g59
S'w'
tp3230
g61
ssg82
(dp3231
I0
g29
sI1
VFor
p3232
sI2
Vshe
p3233
sI3
Vdid
p3234
sI4
Vnot
p3235
sI5
Vwant
p3236
sI6
Vhim
p3237
sI7
Vto
p3238
sI8
Vsee
p3239
sI9
Vher
p3240
sI10
Vcrying
p3241
sI11
V.
ssg101
S'::id lpp_1943.478'
p3242
sg103
S'For she did not want him to see her crying .'
p3243
sg105
(dp3244
S'c'
(lp3245
S'0.2.1'
p3246
asS'none0'
p3247
(lp3248
S'0.0'
p3249
asg3202
(lp3250
S'0.2'
p3251
asS's'
(lp3252
S'0.1'
p3253
asS'w'
(lp3254
S'0'
asS'h'
(lp3255
S'0.2.0'
p3256
assg141
(dp3257
S'c'
S'cry'
p3258
sg3200
S'-'
sg3202
S'see'
p3259
sg59
g149
sS's'
S'she'
p3260
sS'w'
S'want'
p3261
sS'h'
S'he'
p3262
ssg160
(dp3263
(I5
I4
tp3264
S':neg'
p3265
s(I5
I11
tp3266
S':punct'
p3267
s(I5
I6
tp3268
S':dobj'
p3269
s(I8
I10
tp3270
S':dobj'
p3271
s(I0
I5
tp3272
S':ROOT'
p3273
s(I10
I9
tp3274
S':nmod-poss'
p3275
s(I8
I7
tp3276
S':mark'
p3277
s(I8
I6
tp3278
S':nsubj'
p3279
s(I5
I1
tp3280
S':mark'
p3281
s(I5
I2
tp3282
S':nsubj'
p3283
s(I5
I8
tp3284
S':xcomp'
p3285
s(I5
I3
tp3286
S':aux'
p3287
sssI19
(dp3288
g3
(dp3289
S'c'
S'0'
sS'b'
S'0.0.1.0'
p3290
sS'e'
S'0.0.1.0.0'
p3291
sS'none0'
p3292
S'0.0.1.0.1.1.0'
p3293
sS't2'
p3294
S'0.0.1.0.1.1'
p3295
sS'o'
S'0.0'
p3296
sS'n'
S'0.0.1.0.1.0'
p3297
sS'r'
S'0.0.1'
p3298
sS't'
S'0.0.1.0.0.0'
p3299
sS'b2'
p3300
S'0.0.1.0.1'
p3301
sS'y'
S'0.0.0'
p3302
sS'y2'
p3303
S'0.0.1.0.1.1.1'
p3304
ssg27
(dp3305
I0
g29
sI1
S'but'
p3306
sI2
S'you'
p3307
sI3
S'have'
p3308
sI4
S'to'
p3309
sI5
S'recognize'
p3310
sI6
S'that'
p3311
sI7
S'these'
p3312
sI8
S'event'
p3313
sI9
S'take'
p3314
sI10
S'place'
p3315
sI11
S'35'
p3316
sI12
S'year'
p3317
sI13
S'ago'
p3318
sI14
S'.'
ssg47
(dp3319
(g3294
g3303
tp3320
S':unit'
p3321
s(S'b'
g3300
tp3322
S':ARG2'
p3323
s(S'o'
S'r'
tp3324
S':ARG2'
p3325
s(g3300
g3294
tp3326
S':quant'
p3327
s(g3294
S'none0'
tp3328
S':quant'
p3329
s(g3300
S'n'
tp3330
S':op1'
p3331
s(S'o'
S'y'
tp3332
S':ARG1'
p3333
s(S'r'
S'y'
tp3334
S':ARG0'
p3335
s(S'r'
S'b'
tp3336
S':ARG1'
p3337
s(S'e'
S't'
tp3338
S':mod'
p3339
s(S'c'
S'o'
tp3340
S':ARG2'
p3341
s(S'b'
S'e'
tp3342
S':ARG1'
p3343
s(g59
S'c'
tp3344
g61
ssg82
(dp3345
I0
g29
sI1
VBut
p3346
sI2
Vyou
p3347
sI3
Vhave
p3348
sI4
Vto
p3349
sI5
Vrecognize
p3350
sI6
Vthat
p3351
sI7
Vthese
p3352
sI8
Vevents
p3353
sI9
Vtook
p3354
sI10
Vplace
p3355
sI11
V35
p3356
sI12
Vyears
p3357
sI13
Vago
p3358
sI14
V.
ssg101
S'::id nw.wsj_0003.29'
p3359
sg103
S'But you have to recognize that these events took place 35 years ago .'
p3360
sg105
(dp3361
S'c'
(lp3362
S'0'
asS'b'
(lp3363
S'0.0.1.0'
p3364
asS'e'
(lp3365
S'0.0.1.0.0'
p3366
asS'none0'
p3367
(lp3368
S'0.0.1.0.1.1.0'
p3369
asg3294
(lp3370
S'0.0.1.0.1.1'
p3371
asS'o'
(lp3372
S'0.0'
p3373
asS'n'
(lp3374
S'0.0.1.0.1.0'
p3375
asS'r'
(lp3376
S'0.0.1'
p3377
asS't'
(lp3378
S'0.0.1.0.0.0'
p3379
asg3300
(lp3380
S'0.0.1.0.1'
p3381
asS'y'
(lp3382
S'0.0.0'
p3383
asg3303
(lp3384
S'0.0.1.0.1.1.1'
p3385
assg141
(dp3386
S'c'
S'contrast'
p3387
sS'b'
S'be-temporally-at'
p3388
sS'e'
S'event'
p3389
sg3292
S'35'
p3390
sg59
g149
sg3294
S'temporal-quantity'
p3391
sS'o'
S'obligate'
p3392
sS'n'
S'now'
p3393
sS'r'
S'recognize'
p3394
sS't'
S'this'
p3395
sg3300
S'before'
p3396
sS'y'
S'you'
p3397
sg3303
S'year'
p3398
ssg160
(dp3399
(I5
I9
tp3400
S':ccomp'
p3401
s(I5
I4
tp3402
S':mark'
p3403
s(I12
I11
tp3404
S':nummod'
p3405
s(I9
I13
tp3406
S':advmod'
p3407
s(I9
I6
tp3408
S':mark'
p3409
s(I9
I8
tp3410
S':nsubj'
p3411
s(I3
I1
tp3412
S':cc'
p3413
s(I3
I2
tp3414
S':nsubj'
p3415
s(I9
I10
tp3416
S':dobj'
p3417
s(I8
I7
tp3418
S':det'
p3419
s(I13
I12
tp3420
S':nmod-npmod'
p3421
s(I0
I3
tp3422
S':ROOT'
p3423
s(I5
I2
tp3424
S':nsubj'
p3425
s(I3
I14
tp3426
S':punct'
p3427
s(I3
I5
tp3428
S':xcomp'
p3429
sssI20
(dp3430
g3
(dp3431
S'b'
S'0.0.0.1'
p3432
sS'l'
S'0.0'
p3433
sS's'
S'0.0.0.0'
p3434
sS'r'
S'0'
sS't'
S'0.0.0'
p3435
sS'y'
S'0.1'
p3436
ssg27
(dp3437
I0
g29
sI1
S'why'
p3438
sI2
S'do'
p3439
sI3
S'not'
p3440
sI4
S'you'
p3441
sI5
S'look'
p3442
sI6
S'at'
p3443
sI7
S'some'
p3444
sI8
S'of'
p3445
sI9
S'the'
p3446
sI10
S'toy'
p3447
sI11
S'in'
p3448
sI12
S'the'
p3449
sI13
S'basket'
p3450
sI14
S'.'
ssg47
(dp3451
(S'l'
S'y'
tp3452
S':ARG0'
p3453
s(g59
S'r'
tp3454
g61
s(S't'
S'b'
tp3455
S':location'
p3456
s(S'r'
S'y'
tp3457
S':ARG2'
p3458
s(S'r'
S'l'
tp3459
S':ARG1'
p3460
s(S't'
S's'
tp3461
S':mod'
p3462
s(S'l'
S't'
tp3463
S':ARG1'
p3464
ssg82
(dp3465
I0
g29
sI1
Vwhy
p3466
sI2
Vdo
p3467
sI3
Vn't
p3468
sI4
Vyou
p3469
sI5
Vlook
p3470
sI6
Vat
p3471
sI7
Vsome
p3472
sI8
Vof
p3473
sI9
Vthe
p3474
sI10
Vtoys
p3475
sI11
Vin
p3476
sI12
Vthe
p3477
sI13
Vbasket
p3478
sI14
V.
ssg101
S'::id edinburgh_1003.2'
p3479
sg103
S"why don't you look at some of the toys in the basket ."
p3480
sg105
(dp3481
S'b'
(lp3482
S'0.0.0.1'
p3483
asS'l'
(lp3484
S'0.0'
p3485
asS's'
(lp3486
S'0.0.0.0'
p3487
asS'r'
(lp3488
S'0'
asS't'
(lp3489
S'0.0.0'
p3490
asS'y'
(lp3491
S'0.1'
p3492
assg141
(dp3493
S'b'
S'basket'
p3494
sg59
g149
sS'l'
S'look'
p3495
sS's'
S'some'
p3496
sS'r'
S'recommend'
p3497
sS't'
S'toy'
p3498
sS'y'
S'you'
p3499
ssg160
(dp3500
(I5
I4
tp3501
S':nsubj'
p3502
s(I5
I10
tp3503
S':nmod-at'
p3504
s(I10
I7
tp3505
S':det-qmod'
p3506
s(I7
I8
tp3507
S':mwe'
p3508
s(I10
I13
tp3509
S':nmod-in'
p3510
s(I10
I6
tp3511
S':case'
p3512
s(I13
I12
tp3513
S':det'
p3514
s(I5
I14
tp3515
S':punct'
p3516
s(I0
I5
tp3517
S':root'
p3518
s(I5
I1
tp3519
S':advmod'
p3520
s(I13
I11
tp3521
S':case'
p3522
s(I5
I2
tp3523
S':aux'
p3524
s(I10
I9
tp3525
S':det'
p3526
s(I5
I3
tp3527
S':neg'
p3528
sss.