(dp1
I1
(dp2
S'amr2jamr'
p3
(dp4
S'a'
S'0.1.1.1'
p5
sS'g'
S'0.1.0'
p6
sS'i'
S'0.0'
p7
sS'h'
S'0.1.1.0'
p8
sS'm'
S'0.1'
p9
sS'l'
S'0'
sS'w'
S'0.1.1'
p10
ssS'lemmas'
p11
(dp12
I0
S'ROOT'
p13
sI1
S'I'
sI2
S'have'
p14
sI3
S'loosen'
p15
sI4
S'the'
p16
sI5
S'golden'
p17
sI6
S'muffler'
p18
sI7
S'that'
p19
sI8
S'he'
p20
sI9
S'always'
p21
sI10
S'wear'
p22
sI11
S'.'
ssS'amr_graph'
p23
(dp24
(S'l'
S'm'
tp25
S':ARG1'
p26
s(S'top'
p27
S'l'
tp28
S':focus'
p29
s(S'm'
S'g'
tp30
S':consist-of'
p31
s(S'm'
S'w'
tp32
S':ARG1-of'
p33
s(S'w'
S'h'
tp34
S':ARG0'
p35
s(S'l'
S'i'
tp36
S':ARG0'
p37
s(S'w'
S'a'
tp38
S':time'
p39
ssS'words'
p40
(dp41
I0
g13
sI1
VI
sI2
Vhad
p42
sI3
Vloosened
p43
sI4
Vthe
p44
sI5
Vgolden
p45
sI6
Vmuffler
p46
sI7
Vthat
p47
sI8
Vhe
p48
sI9
Valways
p49
sI10
Vwore
p50
sI11
V.
ssS'sentence'
p51
S'I had loosened the golden muffler that he always wore .'
p52
sS'amr2isi'
p53
(dp54
S'a'
(lp55
S'0.1.1.1'
p56
asS'g'
(lp57
S'0.1.0'
p58
asS'i'
(lp59
S'0.0'
p60
asS'h'
(lp61
S'0.1.1.0'
p62
asS'm'
(lp63
S'0.1'
p64
asS'l'
(lp65
S'0'
asS'w'
(lp66
S'0.1.1'
p67
assS'amr_concepts'
p68
(dp69
S'a'
S'always'
p70
sS'g'
S'gold'
p71
sS'i'
S'i'
sS'h'
S'he'
p72
sg27
S'TOP'
p73
sS'm'
S'muffler'
p74
sS'l'
S'loosen'
p75
sS'w'
S'wear'
p76
ssS'dep_graph'
p77
(dp78
(I6
I4
tp79
S':det'
p80
s(I3
I2
tp81
S':aux'
p82
s(I10
I6
tp83
S':dobj'
p84
s(I6
I7
tp85
S':ref'
p86
s(I10
I8
tp87
S':nsubj'
p88
s(I3
I1
tp89
S':nsubj'
p90
s(I3
I11
tp91
S':punct'
p92
s(I6
I10
tp93
S':acl-relcl'
p94
s(I10
I9
tp95
S':advmod'
p96
s(I3
I6
tp97
S':dobj'
p98
s(I0
I3
tp99
S':ROOT'
p100
s(I6
I5
tp101
S':amod'
p102
sssI2
(dp103
g3
(dp104
S'c'
S'0.1.2.0'
p105
sS'none4'
p106
S'0.1.2.0.0.1'
p107
sS'none3'
p108
S'0.1.2.0.0.0'
p109
sS'none2'
p110
S'0.1.0.2'
p111
sS'none1'
p112
S'0.1.0.1'
p113
sS'f'
S'0.1.2.2'
p114
sS'h2'
p115
S'0.1.2'
p116
sS'h'
S'0.0'
p117
sS'none0'
p118
S'0.1.0.0'
p119
sS'p'
S'0.1'
p120
sS's'
S'0'
sS'r'
S'0.1.1'
p121
sS't'
S'0.1.0'
p122
sS'w'
S'0.1.2.0.0'
p123
sS'v'
S'0.1.2.1.0'
p124
sS'c2'
p125
S'0.1.2.1'
p126
ssg11
(dp127
I0
g13
sI1
S'he'
p128
sI2
S'succeed'
p129
sI3
S'Terrence'
p130
sI4
S'D.'
p131
sI5
S'Daniels'
p132
sI6
S','
sI7
S'formerly'
p133
sI8
S'a'
sI9
S'W.R.'
p134
sI10
S'Grace'
p135
sI11
S'vice'
p136
sI12
S'chairman'
p137
sI13
S','
sI14
S'who'
p138
sI15
S'resign'
p139
sI16
S'.'
ssg23
(dp140
(S'w'
S'none4'
tp141
S':op2'
p142
s(g115
g125
tp143
S':ARG2'
p144
s(S'p'
g115
tp145
S':ARG0-of'
p146
s(S'p'
S'r'
tp147
S':ARG0-of'
p148
s(g115
S'c'
tp149
S':ARG1'
p150
s(S'w'
S'none3'
tp151
S':op1'
p152
s(S's'
S'p'
tp153
S':ARG1'
p154
s(g27
S's'
tp155
g29
s(S'p'
S't'
tp156
S':name'
p157
s(S'c'
S'w'
tp158
S':name'
p159
s(S't'
S'none2'
tp160
S':op3'
p161
s(S's'
S'h'
tp162
S':ARG0'
p163
s(g115
S'f'
tp164
S':time'
p165
s(S't'
S'none1'
tp166
S':op2'
p167
s(S't'
S'none0'
tp168
S':op1'
p169
s(g125
S'v'
tp170
S':mod'
p171
ssg40
(dp172
I0
g13
sI1
VHe
p173
sI2
Vsucceeds
p174
sI3
VTerrence
p175
sI4
VD.
p176
sI5
VDaniels
p177
sI6
V,
sI7
Vformerly
p178
sI8
Va
sI9
VW.R.
p179
sI10
VGrace
p180
sI11
Vvice
p181
sI12
Vchairman
p182
sI13
V,
sI14
Vwho
p183
sI15
Vresigned
p184
sI16
V.
ssg51
S'He succeeds Terrence D. Daniels , formerly a W.R. Grace vice chairman , who resigned .'
p185
sg53
(dp186
S'c'
(lp187
S'0.1.2.0'
p188
asS'none4'
p189
(lp190
S'0.1.2.0.0.1'
p191
asS'none3'
p192
(lp193
S'0.1.2.0.0.0'
p194
asS'none2'
p195
(lp196
S'0.1.0.2'
p197
asS'none1'
p198
(lp199
S'0.1.0.1'
p200
asS'f'
(lp201
S'0.1.2.2'
p202
asg115
(lp203
S'0.1.2'
p204
asS'h'
(lp205
S'0.0'
p206
asS'none0'
p207
(lp208
S'0.1.0.0'
p209
asS'p'
(lp210
S'0.1'
p211
asS's'
(lp212
S'0'
asS'r'
(lp213
S'0.1.1'
p214
asS't'
(lp215
S'0.1.0'
p216
asS'w'
(lp217
S'0.1.2.0.0'
p218
asS'v'
(lp219
S'0.1.2.1.0'
p220
asg125
(lp221
S'0.1.2.1'
p222
assg68
(dp223
S'c'
S'company'
p224
sg106
S'Grace'
p225
sg108
S'W.R.'
p226
sg110
S'Daniels'
p227
sg112
S'D.'
p228
sS'f'
S'former'
p229
sg115
S'have-org-role'
p230
sS'h'
S'he'
p231
sg27
g73
sg118
S'Terrence'
p232
sS'p'
S'person'
p233
sS's'
S'succeed'
p234
sS'r'
S'resign'
p235
sS't'
S'name'
p236
sS'w'
S'name'
p237
sS'v'
S'vice'
p238
sg125
S'chairman'
p239
ssg77
(dp240
(I5
I14
tp241
S':ref'
p242
s(I5
I4
tp243
S':compound'
p244
s(I2
I16
tp245
S':punct'
p246
s(I5
I6
tp247
S':punct'
p248
s(I12
I7
tp249
S':advmod'
p250
s(I12
I8
tp251
S':det'
p252
s(I5
I13
tp253
S':punct'
p254
s(I2
I1
tp255
S':nsubj'
p256
s(I5
I12
tp257
S':appos'
p258
s(I9
I10
tp259
S':compound'
p260
s(I5
I15
tp261
S':acl-relcl'
p262
s(I12
I11
tp263
S':compound'
p264
s(I2
I5
tp265
S':dobj'
p266
s(I15
I5
tp267
S':nsubj'
p268
s(I12
I9
tp269
S':compound'
p270
s(I0
I2
tp271
S':ROOT'
p272
s(I5
I3
tp273
S':compound'
p274
sssI3
(dp275
g3
(dp276
S'c'
S'0'
sS'd'
S'0.0'
p277
sS'none0'
p278
S'0.1.0'
p279
sS'p'
S'0.1'
p280
sS'r'
S'0.0.0'
p281
sS't'
S'0.1.1'
p282
ssg11
(dp283
I0
g13
sI1
S'it'
p284
sI2
S'be'
p285
sI3
S'the'
p286
sI4
S'right'
p287
sI5
S'day'
p288
sI6
S','
sI7
S'but'
p289
sI8
S'this'
p290
sI9
S'be'
p291
sI10
S'not'
p292
sI11
S'the'
p293
sI12
S'place'
p294
sI13
S'.'
ssg23
(dp295
(S'p'
S'none0'
tp296
S':polarity'
p297
s(S'd'
S'r'
tp298
S':ARG2-of'
p299
s(S'p'
S't'
tp300
S':domain'
p301
s(S'c'
S'd'
tp302
S':ARG1'
p303
s(S'c'
S'p'
tp304
S':ARG2'
p305
s(g27
S'c'
tp306
g29
ssg40
(dp307
I0
g13
sI1
VIt
p308
sI2
Vis
p309
sI3
Vthe
p310
sI4
Vright
p311
sI5
Vday
p312
sI6
V,
sI7
Vbut
p313
sI8
Vthis
p314
sI9
Vis
p315
sI10
Vnot
p316
sI11
Vthe
p317
sI12
Vplace
p318
sI13
V.
ssg51
S'It is the right day , but this is not the place .'
p319
sg53
(dp320
S'c'
(lp321
S'0'
asS'd'
(lp322
S'0.0'
p323
asS'none0'
p324
(lp325
S'0.1.0'
p326
asS'p'
(lp327
S'0.1'
p328
asS'r'
(lp329
S'0.0.0'
p330
asS't'
(lp331
S'0.1.1'
p332
assg68
(dp333
S'c'
S'contrast'
p334
sS'd'
S'day'
p335
sg278
S'-'
sg27
g73
sS'p'
S'place'
p336
sS'r'
S'right'
p337
sS't'
S'this'
p338
ssg77
(dp339
(I5
I4
tp340
S':amod'
p341
s(I5
I6
tp342
S':punct'
p343
s(I12
I9
tp344
S':cop'
p345
s(I5
I12
tp346
S':conj-but'
p347
s(I5
I7
tp348
S':cc'
p349
s(I5
I13
tp350
S':punct'
p351
s(I0
I5
tp352
S':ROOT'
p353
s(I12
I11
tp354
S':det'
p355
s(I12
I10
tp356
S':neg'
p357
s(I5
I1
tp358
S':nsubj'
p359
s(I12
I8
tp360
S':nsubj'
p361
s(I5
I2
tp362
S':cop'
p363
s(I5
I3
tp364
S':det'
p365
sssI4
(dp366
g3
(dp367
S'a'
S'0.0.2'
p368
sS'e'
S'0.2'
p369
sS'none1'
p370
S'0.1.0'
p371
sS'none0'
p372
S'0.0.0'
p373
sS'i'
S'0.0.1'
p374
sS'h'
S'0.1'
p375
sS'o'
S'0'
sS's'
S'0.0'
p376
ssg11
(dp377
I0
g13
sI1
S'at'
p378
sI2
S'no'
p379
sI3
S'time'
p380
sI4
S'do'
p381
sI5
S'I'
sI6
S'see'
p382
sI7
S'or'
p383
sI8
S'hear'
p384
sI9
S'anyone'
p385
sI10
S'.'
ssg23
(dp386
(S's'
S'a'
tp387
S':ARG1'
p388
s(S'h'
S'a'
tp389
S':ARG1'
p390
s(S'o'
S'e'
tp391
S':time'
p392
s(S'h'
S'i'
tp393
S':ARG0'
p394
s(S'o'
S's'
tp395
S':op1'
p396
s(S's'
S'none0'
tp397
S':polarity'
p398
s(g27
S'o'
tp399
g29
s(S's'
S'i'
tp400
S':ARG0'
p401
s(S'o'
S'h'
tp402
S':op2'
p403
s(S'h'
S'none1'
tp404
S':polarity'
p405
ssg40
(dp406
I0
g13
sI1
VAt
p407
sI2
Vno
p408
sI3
Vtime
p409
sI4
Vdid
p410
sI5
VI
sI6
Vsee
p411
sI7
Vor
p412
sI8
Vhear
p413
sI9
Vanyone
p414
sI10
V.
ssg51
S'At no time did I see or hear anyone .'
p415
sg53
(dp416
S'a'
(lp417
S'0.0.2'
p418
asS'e'
(lp419
S'0.2'
p420
asS'none1'
p421
(lp422
S'0.1.0'
p423
asS'none0'
p424
(lp425
S'0.0.0'
p426
asS'i'
(lp427
S'0.0.1'
p428
asS'h'
(lp429
S'0.1'
p430
asS'o'
(lp431
S'0'
asS's'
(lp432
S'0.0'
p433
assg68
(dp434
S'a'
S'anyone'
p435
sS'e'
S'ever'
p436
sg370
S'-'
sg372
S'-'
sS'i'
S'i'
sS'h'
S'hear'
p437
sg27
g73
sS'o'
S'or'
p438
sS's'
S'see'
p439
ssg77
(dp440
(I6
I4
tp441
S':aux'
p442
s(I3
I2
tp443
S':neg'
p444
s(I6
I10
tp445
S':punct'
p446
s(I6
I7
tp447
S':cc'
p448
s(I6
I8
tp449
S':conj-or'
p450
s(I3
I1
tp451
S':case'
p452
s(I6
I9
tp453
S':dobj'
p454
s(I6
I3
tp455
S':nmod-at'
p456
s(I0
I6
tp457
S':ROOT'
p458
s(I8
I9
tp459
S':dobj'
p460
s(I8
I5
tp461
S':nsubj'
p462
s(I6
I5
tp463
S':nsubj'
p464
sssI5
(dp465
g3
(dp466
S'c'
S'0.1.1'
p467
sS'd'
S'0.1.0'
p468
sS'h2'
p469
S'0'
sS't2'
p470
S'0.1.1.0.1'
p471
sS'n'
S'0.1'
p472
sS'i'
S'0.1.1.0.0'
p473
sS'w2'
p474
S'0.1.1.0'
p475
sS'y'
S'0.0'
p476
ssg11
(dp477
I0
g13
sI1
S'you'
p478
sI2
S'have'
p479
sI3
S'nothing'
p480
sI4
S'to'
p481
sI5
S'do'
p482
sI6
S'but'
p483
sI7
S'wait'
p484
sI8
S'for'
p485
sI9
S'I'
sI10
S'there'
p486
sI11
S'.'
ssg23
(dp487
(g27
g469
tp488
g29
s(g469
S'y'
tp489
S':ARG0'
p490
s(S'n'
S'c'
tp491
S':ARG1-of'
p492
s(S'c'
g474
tp493
S':ARG2'
p494
s(S'd'
S'y'
tp495
S':ARG0'
p496
s(g474
S'i'
tp497
S':ARG2'
p498
s(g474
S'y'
tp499
S':ARG1'
p500
s(g474
g470
tp501
S':location'
p502
s(S'n'
S'd'
tp503
S':ARG1-of'
p504
s(g469
S'n'
tp505
S':ARG1'
p506
ssg40
(dp507
I0
g13
sI1
VYou
p508
sI2
Vhave
p509
sI3
Vnothing
p510
sI4
Vto
p511
sI5
Vdo
p512
sI6
Vbut
p513
sI7
Vwait
p514
sI8
Vfor
p515
sI9
Vme
p516
sI10
Vthere
p517
sI11
V.
ssg51
S'You have nothing to do but wait for me there .'
p518
sg53
(dp519
S'c'
(lp520
S'0.1.1'
p521
asS'd'
(lp522
S'0.1.0'
p523
asg469
(lp524
S'0'
asg470
(lp525
S'0.1.1.0.1'
p526
asS'n'
(lp527
S'0.1'
p528
asS'i'
(lp529
S'0.1.1.0.0'
p530
asg474
(lp531
S'0.1.1.0'
p532
asS'y'
(lp533
S'0.0'
p534
assg68
(dp535
S'c'
S'contrast'
p536
sS'd'
S'do'
p537
sg469
S'have'
p538
sg27
g73
sg470
S'there'
p539
sS'n'
S'nothing'
p540
sS'i'
S'i'
sg474
S'wait'
p541
sS'y'
S'you'
p542
ssg77
(dp543
(I5
I4
tp544
S':mark'
p545
s(I5
I6
tp546
S':cc'
p547
s(I9
I8
tp548
S':case'
p549
s(I5
I7
tp550
S':conj-but'
p551
s(I2
I11
tp552
S':punct'
p553
s(I2
I1
tp554
S':nsubj'
p555
s(I2
I3
tp556
S':dobj'
p557
s(I7
I10
tp558
S':advmod'
p559
s(I3
I7
tp560
S':acl'
p561
s(I7
I9
tp562
S':nmod-for'
p563
s(I0
I2
tp564
S':ROOT'
p565
s(I3
I5
tp566
S':acl'
p567
sssI6
(dp568
g3
(dp569
S'd'
S'0.1.0.1'
p570
sS'g'
S'0.1'
p571
sS'i'
S'0.0'
p572
sS'r'
S'0.1.0'
p573
sS'w2'
p574
S'0.1.0.0'
p575
sS'w'
S'0'
ssg11
(dp576
I0
g13
sI1
S'I'
sI2
S'want'
p577
sI3
S'to'
p578
sI4
S'get'
p579
sI5
S'down'
p580
sI6
S'from'
p581
sI7
S'the'
p582
sI8
S'wall'
p583
sI9
S'.'
ssg23
(dp584
(S'g'
S'r'
tp585
S':ARG2'
p586
s(S'g'
S'i'
tp587
S':ARG0'
p588
s(S'r'
S'd'
tp589
S':direction'
p590
s(S'w'
S'i'
tp591
S':ARG0'
p592
s(S'w'
S'g'
tp593
S':ARG1'
p594
s(g27
S'w'
tp595
g29
s(S'r'
g574
tp596
S':op1'
p597
ssg40
(dp598
I0
g13
sI1
VI
sI2
Vwant
p599
sI3
Vto
p600
sI4
Vget
p601
sI5
Vdown
p602
sI6
Vfrom
p603
sI7
Vthe
p604
sI8
Vwall
p605
sI9
V.
ssg51
S'I want to get down from the wall .'
p606
sg53
(dp607
S'd'
(lp608
S'0.1.0.1'
p609
asS'g'
(lp610
S'0.1'
p611
asS'i'
(lp612
S'0.0'
p613
asS'r'
(lp614
S'0.1.0'
p615
asg574
(lp616
S'0.1.0.0'
p617
asS'w'
(lp618
S'0'
assg68
(dp619
S'd'
S'down'
p620
sS'g'
S'get'
p621
sS'i'
S'i'
sg27
g73
sS'r'
S'relative-position'
p622
sg574
S'wall'
p623
sS'w'
S'want'
p624
ssg77
(dp625
(I8
I7
tp626
S':det'
p627
s(I2
I9
tp628
S':punct'
p629
s(I4
I8
tp630
S':nmod-from'
p631
s(I4
I5
tp632
S':compound-prt'
p633
s(I2
I1
tp634
S':nsubj'
p635
s(I2
I4
tp636
S':xcomp'
p637
s(I4
I3
tp638
S':mark'
p639
s(I8
I6
tp640
S':case'
p641
s(I4
I1
tp642
S':nsubj'
p643
s(I0
I2
tp644
S':ROOT'
p645
sssI7
(dp646
g3
(dp647
S'a'
S'0'
sS'd'
S'0.1.0.1'
p648
sS'g'
S'0.1'
p649
sS'i'
S'0.0.0'
p650
sS'h'
S'0.0.1.0'
p651
sS'm'
S'0.0'
p652
sS's'
S'0.1.0.0'
p653
sS't'
S'0.0.1'
p654
sS'w'
S'0.1.0'
p655
ssg11
(dp656
I0
g13
sI1
S'I'
sI2
S'have'
p657
sI3
S'moisten'
p658
sI4
S'he'
p659
sI5
S'temple'
p660
sI6
S','
sI7
S'and'
p661
sI8
S'have'
p662
sI9
S'give'
p663
sI10
S'he'
p664
sI11
S'some'
p665
sI12
S'water'
p666
sI13
S'to'
p667
sI14
S'drink'
p668
sI15
S'.'
ssg23
(dp669
(S'm'
S't'
tp670
S':ARG1'
p671
s(S'g'
S'h'
tp672
S':ARG2'
p673
s(S'g'
S'i'
tp674
S':ARG0'
p675
s(S'a'
S'g'
tp676
S':op2'
p677
s(S'w'
S'd'
tp678
S':purpose'
p679
s(S'a'
S'm'
tp680
S':op1'
p681
s(S't'
S'h'
tp682
S':poss'
p683
s(S'w'
S's'
tp684
S':quant'
p685
s(S'g'
S'w'
tp686
S':ARG1'
p687
s(g27
S'a'
tp688
g29
s(S'm'
S'i'
tp689
S':ARG0'
p690
ssg40
(dp691
I0
g13
sI1
VI
sI2
Vhad
p692
sI3
Vmoistened
p693
sI4
Vhis
p694
sI5
Vtemples
p695
sI6
V,
sI7
Vand
p696
sI8
Vhad
p697
sI9
Vgiven
p698
sI10
Vhim
p699
sI11
Vsome
p700
sI12
Vwater
p701
sI13
Vto
p702
sI14
Vdrink
p703
sI15
V.
ssg51
S'I had moistened his temples , and had given him some water to drink .'
p704
sg53
(dp705
S'a'
(lp706
S'0'
asS'd'
(lp707
S'0.1.0.1'
p708
asS'g'
(lp709
S'0.1'
p710
asS'i'
(lp711
S'0.0.0'
p712
asS'h'
(lp713
S'0.0.1.0'
p714
asS'm'
(lp715
S'0.0'
p716
asS's'
(lp717
S'0.1.0.0'
p718
asS't'
(lp719
S'0.0.1'
p720
asS'w'
(lp721
S'0.1.0'
p722
assg68
(dp723
S'a'
S'and'
p724
sS'd'
S'drink'
p725
sS'g'
S'give'
p726
sS'i'
S'i'
sS'h'
S'he'
p727
sg27
g73
sS'm'
S'moisten'
p728
sS's'
S'some'
p729
sS't'
S'temple'
p730
sS'w'
S'water'
p731
ssg77
(dp732
(I3
I15
tp733
S':punct'
p734
s(I5
I4
tp735
S':nmod-poss'
p736
s(I9
I1
tp737
S':nsubj'
p738
s(I12
I14
tp739
S':acl'
p740
s(I9
I8
tp741
S':aux'
p742
s(I3
I1
tp743
S':nsubj'
p744
s(I12
I11
tp745
S':det'
p746
s(I3
I2
tp747
S':aux'
p748
s(I14
I13
tp749
S':mark'
p750
s(I9
I10
tp751
S':iobj'
p752
s(I3
I9
tp753
S':conj-and'
p754
s(I3
I6
tp755
S':punct'
p756
s(I3
I7
tp757
S':cc'
p758
s(I0
I3
tp759
S':ROOT'
p760
s(I9
I12
tp761
S':dobj'
p762
s(I3
I5
tp763
S':dobj'
p764
sssI8
(dp765
g3
(dp766
S'y'
S'0.0'
p767
sS'a'
S'0.2'
p768
sS'k'
S'0'
sS't'
S'0.1'
p769
ssg11
(dp770
I0
g13
sI1
S'how'
p771
sI2
S'do'
p772
sI3
S'you'
p773
sI4
S'know'
p774
sI5
S'about'
p775
sI6
S'that'
p776
sI7
S'?'
ssg23
(dp777
(S'k'
S'y'
tp778
S':ARG0'
p779
s(S'k'
S't'
tp780
S':ARG1'
p781
s(g27
S'k'
tp782
g29
s(S'k'
S'a'
tp783
S':manner'
p784
ssg40
(dp785
I0
g13
sI1
VHow
p786
sI2
Vdo
p787
sI3
Vyou
p788
sI4
Vknow
p789
sI5
Vabout
p790
sI6
Vthat
p791
sI7
V?
ssg51
S'How do you know about that ?'
p792
sg53
(dp793
S'y'
(lp794
S'0.0'
p795
asS'a'
(lp796
S'0.2'
p797
asS'k'
(lp798
S'0'
asS't'
(lp799
S'0.1'
p800
assg68
(dp801
S'y'
S'you'
p802
sS'a'
S'amr-unknown'
p803
sS'k'
S'know'
p804
sg27
g73
sS't'
S'that'
p805
ssg77
(dp806
(I4
I7
tp807
S':punct'
p808
s(I4
I6
tp809
S':nmod-about'
p810
s(I4
I3
tp811
S':nsubj'
p812
s(I0
I4
tp813
S':ROOT'
p814
s(I4
I2
tp815
S':aux'
p816
s(I4
I1
tp817
S':advmod'
p818
s(I6
I5
tp819
S':case'
p820
sssI9
(dp821
g3
(dp822
S'a'
S'0.2.0.0.0'
p823
sS'f'
S'0.2.0.0.0.0'
p824
sS's2'
p825
S'0.2.0'
p826
sS'l'
S'0'
sS's'
S'0.1'
p827
sS'r'
S'0.2'
p828
sS'l2'
p829
S'0.2.0.0'
p830
sS'v'
S'0.1.0'
p831
sS'h'
S'0.0'
p832
ssg11
(dp833
I0
g13
sI1
S'he'
p834
sI2
S'look'
p835
sI3
S'be'
p836
sI4
S'very'
p837
sI5
S'serious'
p838
sI6
S','
sI7
S'like'
p839
sI8
S'someone'
p840
sI9
S'lose'
p841
sI10
S'far'
p842
sI11
S'away'
p843
sI12
S'.'
ssg23
(dp844
(S's'
S'v'
tp845
S':degree'
p846
s(S'r'
g825
tp847
S':ARG2'
p848
s(g825
g829
tp849
S':ARG1-of'
p850
s(g27
S'l'
tp851
g29
s(S'a'
S'f'
tp852
S':mod'
p853
s(g829
S'a'
tp854
S':direction'
p855
s(S'l'
S's'
tp856
S':ARG2-of'
p857
s(S'l'
S'r'
tp858
S':ARG1-of'
p859
s(S'l'
S'h'
tp860
S':ARG0'
p861
ssg40
(dp862
I0
g13
sI1
VHis
p863
sI2
Vlook
p864
sI3
Vwas
p865
sI4
Vvery
p866
sI5
Vserious
p867
sI6
V,
sI7
Vlike
p868
sI8
Vsomeone
p869
sI9
Vlost
p870
sI10
Vfar
p871
sI11
Vaway
p872
sI12
V.
ssg51
S'His look was very serious , like someone lost far away .'
p873
sg53
(dp874
S'a'
(lp875
S'0.2.0.0.0'
p876
asS'f'
(lp877
S'0.2.0.0.0.0'
p878
asg825
(lp879
S'0.2.0'
p880
asS'l'
(lp881
S'0'
asS's'
(lp882
S'0.1'
p883
asS'r'
(lp884
S'0.2'
p885
asg829
(lp886
S'0.2.0.0'
p887
asS'v'
(lp888
S'0.1.0'
p889
asS'h'
(lp890
S'0.0'
p891
assg68
(dp892
S'a'
S'away'
p893
sS'f'
S'far'
p894
sg825
S'someone'
p895
sg27
g73
sS'l'
S'look'
p896
sS's'
S'serious'
p897
sS'r'
S'resemble'
p898
sg829
S'lose'
p899
sS'v'
S'very'
p900
sS'h'
S'he'
p901
ssg77
(dp902
(I5
I4
tp903
S':advmod'
p904
s(I2
I9
tp905
S':advcl'
p906
s(I5
I6
tp907
S':punct'
p908
s(I9
I8
tp909
S':nsubj'
p910
s(I11
I10
tp911
S':advmod'
p912
s(I2
I1
tp913
S':nmod-poss'
p914
s(I9
I11
tp915
S':advmod'
p916
s(I0
I5
tp917
S':ROOT'
p918
s(I9
I7
tp919
S':mark'
p920
s(I5
I2
tp921
S':nsubj'
p922
s(I5
I12
tp923
S':punct'
p924
s(I5
I3
tp925
S':cop'
p926
sssI10
(dp927
g3
(dp928
S's2'
p929
S'0.1'
p930
sS's'
S'0.0'
p931
sS't'
S'0.1.0'
p932
sS'g'
S'0'
ssg11
(dp933
I0
g13
sI1
S'for'
p934
sI2
S'some'
p935
sI3
S','
sI4
S'who'
p936
sI5
S'be'
p937
sI6
S'traveler'
p938
sI7
S','
sI8
S'the'
p939
sI9
S'star'
p940
sI10
S'be'
p941
sI11
S'guide'
p942
sI12
S'.'
ssg23
(dp943
(g929
S't'
tp944
S':ARG0-of'
p945
s(S'g'
g929
tp946
S':ARG1'
p947
s(S'g'
S's'
tp948
S':ARG0'
p949
s(g27
S'g'
tp950
g29
ssg40
(dp951
I0
g13
sI1
VFor
p952
sI2
Vsome
p953
sI3
V,
sI4
Vwho
p954
sI5
Vare
p955
sI6
Vtravelers
p956
sI7
V,
sI8
Vthe
p957
sI9
Vstars
p958
sI10
Vare
p959
sI11
Vguides
p960
sI12
V.
ssg51
S'For some , who are travelers , the stars are guides .'
p961
sg53
(dp962
g929
(lp963
S'0.1'
p964
asS's'
(lp965
S'0.0'
p966
asS't'
(lp967
S'0.1.0'
p968
asS'g'
(lp969
S'0'
assg68
(dp970
g929
S'some'
p971
sS's'
S'star'
p972
sg27
g73
sS't'
S'travel'
p973
sS'g'
S'guide'
p974
ssg77
(dp975
(I6
I4
tp976
S':nsubj'
p977
s(I11
I10
tp978
S':cop'
p979
s(I6
I7
tp980
S':punct'
p981
s(I6
I11
tp982
S':acl-relcl'
p983
s(I9
I8
tp984
S':det'
p985
s(I11
I9
tp986
S':nsubj'
p987
s(I2
I1
tp988
S':case'
p989
s(I6
I3
tp990
S':punct'
p991
s(I0
I6
tp992
S':ROOT'
p993
s(I6
I2
tp994
S':nmod-for'
p995
s(I6
I12
tp996
S':punct'
p997
s(I6
I5
tp998
S':cop'
p999
sssI11
(dp1000
g3
(dp1001
S'd'
S'0.3'
p1002
sS'none0'
p1003
S'0.0'
p1004
sS'i'
S'0.1'
p1005
sS's2'
p1006
S'0.2'
p1007
sS'n'
S'0.3.0'
p1008
sS's'
S'0'
sS't'
S'0.3.1'
p1009
sS'w'
S'0.2.1'
p1010
sS'h'
S'0.2.0'
p1011
ssg11
(dp1012
I0
g13
sI1
S'that'
p1013
sI2
S'night'
p1014
sI3
S'I'
sI4
S'do'
p1015
sI5
S'not'
p1016
sI6
S'see'
p1017
sI7
S'he'
p1018
sI8
S'set'
p1019
sI9
S'out'
p1020
sI10
S'on'
p1021
sI11
S'he'
p1022
sI12
S'way'
p1023
sI13
S'.'
ssg23
(dp1024
(S's'
S'd'
tp1025
S':time'
p1026
s(g1006
S'w'
tp1027
S':ARG1'
p1028
s(g1006
S'h'
tp1029
S':ARG0'
p1030
s(g27
S's'
tp1031
g29
s(S's'
S'none0'
tp1032
S':polarity'
p1033
s(S'w'
S'h'
tp1034
S':poss'
p1035
s(S'd'
S'n'
tp1036
S':dayperiod'
p1037
s(S'd'
S't'
tp1038
S':mod'
p1039
s(S's'
g1006
tp1040
S':ARG1'
p1041
s(S's'
S'i'
tp1042
S':ARG0'
p1043
ssg40
(dp1044
I0
g13
sI1
VThat
p1045
sI2
Vnight
p1046
sI3
VI
sI4
Vdid
p1047
sI5
Vnot
p1048
sI6
Vsee
p1049
sI7
Vhim
p1050
sI8
Vset
p1051
sI9
Vout
p1052
sI10
Von
p1053
sI11
Vhis
p1054
sI12
Vway
p1055
sI13
V.
ssg51
S'That night I did not see him set out on his way .'
p1056
sg53
(dp1057
S'd'
(lp1058
S'0.3'
p1059
asS'none0'
p1060
(lp1061
S'0.0'
p1062
asS'i'
(lp1063
S'0.1'
p1064
asg1006
(lp1065
S'0.2'
p1066
asS'n'
(lp1067
S'0.3.0'
p1068
asS's'
(lp1069
S'0'
asS't'
(lp1070
S'0.3.1'
p1071
asS'w'
(lp1072
S'0.2.1'
p1073
asS'h'
(lp1074
S'0.2.0'
p1075
assg68
(dp1076
S'd'
S'date-entity'
p1077
sg1003
S'-'
sS'i'
S'i'
sg1006
S'set-out'
p1078
sg27
g73
sS'n'
S'night'
p1079
sS's'
S'see'
p1080
sS't'
S'that'
p1081
sS'w'
S'way'
p1082
sS'h'
S'he'
p1083
ssg77
(dp1084
(I6
I4
tp1085
S':aux'
p1086
s(I2
I6
tp1087
S':acl-relcl'
p1088
s(I6
I8
tp1089
S':ccomp'
p1090
s(I8
I12
tp1091
S':nmod-on'
p1092
s(I12
I11
tp1093
S':nmod-poss'
p1094
s(I2
I1
tp1095
S':det'
p1096
s(I6
I3
tp1097
S':nsubj'
p1098
s(I2
I13
tp1099
S':punct'
p1100
s(I8
I7
tp1101
S':nsubj'
p1102
s(I12
I10
tp1103
S':case'
p1104
s(I8
I9
tp1105
S':compound-prt'
p1106
s(I0
I2
tp1107
S':ROOT'
p1108
s(I6
I5
tp1109
S':neg'
p1110
sssI12
(dp1111
g3
(dp1112
S'a'
S'0.1'
p1113
sS'h'
S'0.0.0'
p1114
sS'p'
S'0.0.0.0'
p1115
sS's'
S'0'
sS'r'
S'0.0.0.0.0'
p1116
sS'w'
S'0.0'
p1117
ssg11
(dp1118
I0
g13
sI1
S'all'
p1119
sI2
S'the'
p1120
sI3
S'star'
p1121
sI4
S'will'
p1122
sI5
S'be'
p1123
sI6
S'well'
p1124
sI7
S'with'
p1125
sI8
S'a'
sI9
S'rusty'
p1126
sI10
S'pulley'
p1127
sI11
S'.'
ssg23
(dp1128
(S's'
S'a'
tp1129
S':mod'
p1130
s(S's'
S'w'
tp1131
S':domain'
p1132
s(g27
S's'
tp1133
g29
s(S'w'
S'h'
tp1134
S':ARG0-of'
p1135
s(S'p'
S'r'
tp1136
S':mod'
p1137
s(S'h'
S'p'
tp1138
S':ARG1'
p1139
ssg40
(dp1140
I0
g13
sI1
VAll
p1141
sI2
Vthe
p1142
sI3
Vstars
p1143
sI4
Vwill
p1144
sI5
Vbe
p1145
sI6
Vwells
p1146
sI7
Vwith
p1147
sI8
Va
sI9
Vrusty
p1148
sI10
Vpulley
p1149
sI11
V.
ssg51
S'All the stars will be wells with a rusty pulley .'
p1150
sg53
(dp1151
S'a'
(lp1152
S'0.1'
p1153
asS'h'
(lp1154
S'0.0.0'
p1155
asS'p'
(lp1156
S'0.0.0.0'
p1157
asS's'
(lp1158
S'0'
asS'r'
(lp1159
S'0.0.0.0.0'
p1160
asS'w'
(lp1161
S'0.0'
p1162
assg68
(dp1163
S'a'
S'all'
p1164
sS'h'
S'have'
p1165
sg27
g73
sS'p'
S'pulley'
p1166
sS's'
S'star'
p1167
sS'r'
S'rust'
p1168
sS'w'
S'well'
p1169
ssg77
(dp1170
(I6
I4
tp1171
S':aux'
p1172
s(I3
I2
tp1173
S':det'
p1174
s(I6
I10
tp1175
S':nmod-with'
p1176
s(I10
I8
tp1177
S':det'
p1178
s(I10
I7
tp1179
S':case'
p1180
s(I3
I1
tp1181
S':det-predet'
p1182
s(I6
I11
tp1183
S':punct'
p1184
s(I6
I3
tp1185
S':nsubj'
p1186
s(I0
I6
tp1187
S':ROOT'
p1188
s(I10
I9
tp1189
S':amod'
p1190
s(I6
I5
tp1191
S':cop'
p1192
sssI13
(dp1193
g3
(dp1194
S'a'
S'0'
sS'h'
S'0.0.0'
p1195
sS's'
S'0.0'
p1196
sS'c'
S'0.0.1'
p1197
sS'f'
S'0.0.1.0'
p1198
ssg11
(dp1199
I0
g13
sI1
S'and'
p1200
sI2
S'he'
p1201
sI3
S'sit'
p1202
sI4
S'down'
p1203
sI5
S','
sI6
S'because'
p1204
sI7
S'he'
p1205
sI8
S'be'
p1206
sI9
S'afraid'
p1207
sI10
S'.'
ssg23
(dp1208
(S'c'
S'f'
tp1209
S':ARG0'
p1210
s(S's'
S'c'
tp1211
S':ARG1-of'
p1212
s(S'a'
S's'
tp1213
S':op2'
p1214
s(S's'
S'h'
tp1215
S':ARG1'
p1216
s(g27
S'a'
tp1217
g29
s(S'f'
S'h'
tp1218
S':ARG0'
p1219
ssg40
(dp1220
I0
g13
sI1
VAnd
p1221
sI2
Vhe
p1222
sI3
Vsat
p1223
sI4
Vdown
p1224
sI5
V,
sI6
Vbecause
p1225
sI7
Vhe
p1226
sI8
Vwas
p1227
sI9
Vafraid
p1228
sI10
V.
ssg51
S'And he sat down , because he was afraid .'
p1229
sg53
(dp1230
S'a'
(lp1231
S'0'
asS'h'
(lp1232
S'0.0.0'
p1233
asS's'
(lp1234
S'0.0'
p1235
asS'c'
(lp1236
S'0.0.1'
p1237
asS'f'
(lp1238
S'0.0.1.0'
p1239
assg68
(dp1240
S'a'
S'and'
p1241
sS'c'
S'cause'
p1242
sS'f'
S'fear'
p1243
sS'h'
S'he'
p1244
sg27
g73
sS's'
S'sit-down'
p1245
ssg77
(dp1246
(I3
I2
tp1247
S':nsubj'
p1248
s(I3
I4
tp1249
S':advmod'
p1250
s(I9
I8
tp1251
S':cop'
p1252
s(I3
I1
tp1253
S':cc'
p1254
s(I3
I9
tp1255
S':advcl'
p1256
s(I0
I3
tp1257
S':ROOT'
p1258
s(I9
I7
tp1259
S':nsubj'
p1260
s(I9
I6
tp1261
S':mark'
p1262
s(I3
I10
tp1263
S':punct'
p1264
s(I3
I5
tp1265
S':punct'
p1266
sssI14
(dp1267
g3
(dp1268
S'a'
S'0.2.0.0'
p1269
sS'none1'
p1270
S'0.1.1.0'
p1271
sS'none0'
p1272
S'0.1.0'
p1273
sS'h'
S'0'
sS'p'
S'0.2'
p1274
sS's'
S'0.0'
p1275
sS'u'
S'0.1.1'
p1276
sS't'
S'0.1'
p1277
sS'w'
S'0.2.0'
p1278
ssg11
(dp1279
I0
g13
sI1
S'she'
p1280
sI2
S'have'
p1281
sI3
S'four'
p1282
sI4
S'thorn'
p1283
sI5
S','
sI6
S'of'
p1284
sI7
S'no'
p1285
sI8
S'use'
p1286
sI9
S'at'
p1287
sI10
S'all'
p1288
sI11
S','
sI12
S'to'
p1289
sI13
S'protect'
p1290
sI14
S'herself'
p1291
sI15
S'against'
p1292
sI16
S'all'
p1293
sI17
S'the'
p1294
sI18
S'world'
p1295
sI19
S'.'
ssg23
(dp1296
(S'p'
S's'
tp1297
S':ARG1'
p1298
s(S't'
S'u'
tp1299
S':ARG1-of'
p1300
s(S'h'
S't'
tp1301
S':ARG1'
p1302
s(S'p'
S't'
tp1303
S':ARG0'
p1304
s(S'p'
S'w'
tp1305
S':ARG2'
p1306
s(S'u'
S'none1'
tp1307
S':polarity'
p1308
s(S'h'
S's'
tp1309
S':ARG0'
p1310
s(S't'
S'none0'
tp1311
S':quant'
p1312
s(S'w'
S'a'
tp1313
S':mod'
p1314
s(g27
S'h'
tp1315
g29
s(S'h'
S'p'
tp1316
S':purpose'
p1317
ssg40
(dp1318
I0
g13
sI1
VShe
p1319
sI2
Vhas
p1320
sI3
Vfour
p1321
sI4
Vthorns
p1322
sI5
V,
sI6
Vof
p1323
sI7
Vno
p1324
sI8
Vuse
p1325
sI9
Vat
p1326
sI10
Vall
p1327
sI11
V,
sI12
Vto
p1328
sI13
Vprotect
p1329
sI14
Vherself
p1330
sI15
Vagainst
p1331
sI16
Vall
p1332
sI17
Vthe
p1333
sI18
Vworld
p1334
sI19
V.
ssg51
S'She has four thorns , of no use at all , to protect herself against all the world .'
p1335
sg53
(dp1336
S'a'
(lp1337
S'0.2.0.0'
p1338
asS'none1'
p1339
(lp1340
S'0.1.1.0'
p1341
asS'none0'
p1342
(lp1343
S'0.1.0'
p1344
asS'h'
(lp1345
S'0'
asS'p'
(lp1346
S'0.2'
p1347
asS's'
(lp1348
S'0.0'
p1349
asS'u'
(lp1350
S'0.1.1'
p1351
asS't'
(lp1352
S'0.1'
p1353
asS'w'
(lp1354
S'0.2.0'
p1355
assg68
(dp1356
S'a'
S'all'
p1357
sg1270
S'-'
sg1272
S'4'
sS'h'
S'have'
p1358
sg27
g73
sS'p'
S'protect'
p1359
sS's'
S'she'
p1360
sS'u'
S'use'
p1361
sS't'
S'thorn'
p1362
sS'w'
S'world'
p1363
ssg77
(dp1364
(I13
I12
tp1365
S':mark'
p1366
s(I2
I19
tp1367
S':punct'
p1368
s(I8
I7
tp1369
S':neg'
p1370
s(I4
I8
tp1371
S':nmod-of'
p1372
s(I4
I5
tp1373
S':punct'
p1374
s(I18
I16
tp1375
S':det-predet'
p1376
s(I18
I15
tp1377
S':case'
p1378
s(I8
I10
tp1379
S':nmod-at'
p1380
s(I2
I1
tp1381
S':nsubj'
p1382
s(I2
I4
tp1383
S':dobj'
p1384
s(I4
I13
tp1385
S':acl'
p1386
s(I13
I14
tp1387
S':dobj'
p1388
s(I18
I17
tp1389
S':det'
p1390
s(I4
I11
tp1391
S':punct'
p1392
s(I4
I3
tp1393
S':nummod'
p1394
s(I8
I6
tp1395
S':case'
p1396
s(I13
I18
tp1397
S':nmod-against'
p1398
s(I0
I2
tp1399
S':ROOT'
p1400
s(I10
I9
tp1401
S':case'
p1402
sssI15
(dp1403
g3
(dp1404
S'none0'
p1405
S'0.2'
p1406
sS'i'
S'0.0'
p1407
sS'h'
S'0.1.0'
p1408
sS'r'
S'0.1.1'
p1409
sS't'
S'0.1'
p1410
sS'w'
S'0'
ssg11
(dp1411
I0
g13
sI1
S'I'
sI2
S'do'
p1412
sI3
S'not'
p1413
sI4
S'want'
p1414
sI5
S'he'
p1415
sI6
S'to'
p1416
sI7
S'tire'
p1417
sI8
S'himself'
p1418
sI9
S'with'
p1419
sI10
S'the'
p1420
sI11
S'rope'
p1421
sI12
S'.'
ssg23
(dp1422
(S't'
S'h'
tp1423
S':ARG1'
p1424
s(S'w'
S'none0'
tp1425
S':polarity'
p1426
s(S'w'
S'i'
tp1427
S':ARG0'
p1428
s(g27
S'w'
tp1429
g29
s(S'w'
S't'
tp1430
S':ARG1'
p1431
s(S't'
S'r'
tp1432
S':instrument'
p1433
ssg40
(dp1434
I0
g13
sI1
VI
sI2
Vdid
p1435
sI3
Vnot
p1436
sI4
Vwant
p1437
sI5
Vhim
p1438
sI6
Vto
p1439
sI7
Vtire
p1440
sI8
Vhimself
p1441
sI9
Vwith
p1442
sI10
Vthe
p1443
sI11
Vrope
p1444
sI12
V.
ssg51
S'I did not want him to tire himself with the rope .'
p1445
sg53
(dp1446
S'none0'
p1447
(lp1448
S'0.2'
p1449
asS'i'
(lp1450
S'0.0'
p1451
asS'h'
(lp1452
S'0.1.0'
p1453
asS'r'
(lp1454
S'0.1.1'
p1455
asS't'
(lp1456
S'0.1'
p1457
asS'w'
(lp1458
S'0'
assg68
(dp1459
g1405
S'-'
sS'i'
S'i'
sS'h'
S'he'
p1460
sg27
g73
sS'r'
S'rope'
p1461
sS't'
S'tire'
p1462
sS'w'
S'want'
p1463
ssg77
(dp1464
(I4
I7
tp1465
S':xcomp'
p1466
s(I4
I12
tp1467
S':punct'
p1468
s(I4
I5
tp1469
S':dobj'
p1470
s(I7
I8
tp1471
S':dobj'
p1472
s(I7
I6
tp1473
S':mark'
p1474
s(I11
I9
tp1475
S':case'
p1476
s(I7
I11
tp1477
S':nmod-with'
p1478
s(I11
I10
tp1479
S':det'
p1480
s(I7
I5
tp1481
S':nsubj'
p1482
s(I4
I3
tp1483
S':neg'
p1484
s(I0
I4
tp1485
S':ROOT'
p1486
s(I4
I2
tp1487
S':aux'
p1488
s(I4
I1
tp1489
S':nsubj'
p1490
sssI16
(dp1491
g3
(dp1492
S'a'
S'0'
sS'e'
S'0.2'
p1493
sS'none1'
p1494
S'0.1.0'
p1495
sS'none0'
p1496
S'0.0.1'
p1497
sS'h2'
p1498
S'0.0.0'
p1499
sS'h'
S'0.0'
p1500
sS't'
S'0.1'
p1501
ssg11
(dp1502
I0
g13
sI1
S'he'
p1503
sI2
S'have'
p1504
sI3
S'never'
p1505
sI4
S'be'
p1506
sI5
S'either'
p1507
sI6
S'hungry'
p1508
sI7
S'or'
p1509
sI8
S'thirsty'
p1510
sI9
S'.'
ssg23
(dp1511
(S'a'
S't'
tp1512
S':op2'
p1513
s(S'h'
g1498
tp1514
S':ARG0'
p1515
s(S't'
S'h2'
tp1516
S':ARG0'
p1517
s(S't'
S'none1'
tp1518
S':polarity'
p1519
s(S'a'
S'e'
tp1520
S':time'
p1521
s(S'a'
S'h'
tp1522
S':op1'
p1523
s(g27
S'a'
tp1524
g29
s(S'h'
S'none0'
tp1525
S':polarity'
p1526
ssg40
(dp1527
I0
g13
sI1
VHe
p1528
sI2
Vhas
p1529
sI3
Vnever
p1530
sI4
Vbeen
p1531
sI5
Veither
p1532
sI6
Vhungry
p1533
sI7
Vor
p1534
sI8
Vthirsty
p1535
sI9
V.
ssg51
S'He has never been either hungry or thirsty .'
p1536
sg53
(dp1537
S'a'
(lp1538
S'0'
asS'e'
(lp1539
S'0.2'
p1540
asS'none1'
p1541
(lp1542
S'0.1.0'
p1543
asS'none0'
p1544
(lp1545
S'0.0.1'
p1546
asg1498
(lp1547
S'0.0.0'
p1548
asS'h'
(lp1549
S'0.0'
p1550
asS't'
(lp1551
S'0.1'
p1552
assg68
(dp1553
S'a'
S'and'
p1554
sS'e'
S'ever'
p1555
sg1494
S'-'
sg1496
S'-'
sg1498
S'he'
p1556
sS'h'
S'hunger'
p1557
sg27
g73
sS't'
S'thirst'
p1558
ssg77
(dp1559
(I6
I4
tp1560
S':cop'
p1561
s(I6
I9
tp1562
S':punct'
p1563
s(I6
I7
tp1564
S':cc'
p1565
s(I6
I8
tp1566
S':conj-or'
p1567
s(I8
I1
tp1568
S':nsubj'
p1569
s(I6
I1
tp1570
S':nsubj'
p1571
s(I6
I3
tp1572
S':neg'
p1573
s(I0
I6
tp1574
S':ROOT'
p1575
s(I6
I2
tp1576
S':aux'
p1577
s(I6
I5
tp1578
S':cc-preconj'
p1579
sssI17
(dp1580
g3
(dp1581
S'i'
S'0.0'
p1582
sS'g2'
p1583
S'0'
sS'w'
S'0.1'
p1584
ssg11
(dp1585
I0
g13
sI1
S'I'
sI2
S'make'
p1586
sI3
S'a'
sI4
S'gesture'
p1587
sI5
S'of'
p1588
sI6
S'weariness'
p1589
sI7
S'.'
ssg23
(dp1590
(g1583
S'w'
tp1591
S':ARG1'
p1592
s(g27
g1583
tp1593
g29
s(S'w'
S'i'
tp1594
S':ARG1'
p1595
s(g1583
S'i'
tp1596
S':ARG0'
p1597
ssg40
(dp1598
I0
g13
sI1
VI
sI2
Vmade
p1599
sI3
Va
sI4
Vgesture
p1600
sI5
Vof
p1601
sI6
Vweariness
p1602
sI7
V.
ssg51
S'I made a gesture of weariness .'
p1603
sg53
(dp1604
S'i'
(lp1605
S'0.0'
p1606
asg1583
(lp1607
S'0'
asS'w'
(lp1608
S'0.1'
p1609
assg68
(dp1610
S'i'
S'i'
sg27
g73
sg1583
S'gesture'
p1611
sS'w'
S'weary'
p1612
ssg77
(dp1613
(I2
I7
tp1614
S':punct'
p1615
s(I4
I6
tp1616
S':nmod-of'
p1617
s(I2
I1
tp1618
S':nsubj'
p1619
s(I2
I4
tp1620
S':dobj'
p1621
s(I4
I3
tp1622
S':det'
p1623
s(I0
I2
tp1624
S':ROOT'
p1625
s(I6
I5
tp1626
S':case'
p1627
sssI18
(dp1628
g3
(dp1629
S'a'
S'0.1'
p1630
sS'd'
S'0.1.0.0'
p1631
sS'f'
S'0'
sS'i'
S'0.0'
p1632
sS'm'
S'0.1.0'
p1633
sS's'
S'0.1.1'
p1634
ssg11
(dp1635
I0
g13
sI1
S'I'
sI2
S'feel'
p1636
sI3
S'deeply'
p1637
sI4
S'move'
p1638
sI5
S','
sI6
S'and'
p1639
sI7
S'stir'
p1640
sI8
S'.'
ssg23
(dp1641
(S'f'
S'a'
tp1642
S':ARG1'
p1643
s(g27
S'f'
tp1644
g29
s(S'a'
S's'
tp1645
S':op2'
p1646
s(S'a'
S'm'
tp1647
S':op1'
p1648
s(S'm'
S'd'
tp1649
S':ARG1-of'
p1650
s(S's'
S'i'
tp1651
S':ARG1'
p1652
s(S'f'
S'i'
tp1653
S':ARG0'
p1654
s(S'm'
S'i'
tp1655
S':ARG1'
p1656
ssg40
(dp1657
I0
g13
sI1
VI
sI2
Vfelt
p1658
sI3
Vdeeply
p1659
sI4
Vmoved
p1660
sI5
V,
sI6
Vand
p1661
sI7
Vstirred
p1662
sI8
V.
ssg51
S'I felt deeply moved , and stirred .'
p1663
sg53
(dp1664
S'a'
(lp1665
S'0.1'
p1666
asS'd'
(lp1667
S'0.1.0.0'
p1668
asS'f'
(lp1669
S'0'
asS'i'
(lp1670
S'0.0'
p1671
asS'm'
(lp1672
S'0.1.0'
p1673
asS's'
(lp1674
S'0.1.1'
p1675
assg68
(dp1676
S'a'
S'and'
p1677
sS'd'
S'deep'
p1678
sS'f'
S'feel'
p1679
sS'i'
S'i'
sg27
g73
sS'm'
S'move'
p1680
sS's'
S'stir'
p1681
ssg77
(dp1682
(I4
I7
tp1683
S':conj-and'
p1684
s(I4
I6
tp1685
S':cc'
p1686
s(I2
I8
tp1687
S':punct'
p1688
s(I2
I1
tp1689
S':nsubj'
p1690
s(I2
I4
tp1691
S':xcomp'
p1692
s(I4
I3
tp1693
S':advmod'
p1694
s(I2
I5
tp1695
S':punct'
p1696
s(I0
I2
tp1697
S':ROOT'
p1698
sssI19
(dp1699
g3
(dp1700
S'p2'
p1701
S'0.0.0'
p1702
sS'i'
S'0.0.0.0'
p1703
sS'm'
S'0.1'
p1704
sS't2'
p1705
S'0.2'
p1706
sS'q'
S'0.0.0.0.0'
p1707
sS'p'
S'0'
sS's'
S'0.0'
p1708
sS't'
S'0.0.0.0.0.0'
p1709
ssg11
(dp1710
I0
g13
sI1
S'this'
p1711
sI2
S'be'
p1712
sI3
S'a'
sI4
S'merchant'
p1713
sI5
S'who'
p1714
sI6
S'sell'
p1715
sI7
S'pill'
p1716
sI8
S'that'
p1717
sI9
S'have'
p1718
sI10
S'be'
p1719
sI11
S'invent'
p1720
sI12
S'to'
p1721
sI13
S'quench'
p1722
sI14
S'thirst'
p1723
sI15
S'.'
ssg23
(dp1724
(S'p'
S's'
tp1725
S':ARG0-of'
p1726
s(S's'
g1701
tp1727
S':ARG1'
p1728
s(S'i'
S'q'
tp1729
S':purpose'
p1730
s(S'p'
g1705
tp1731
S':domain'
p1732
s(g27
S'p'
tp1733
g29
s(S'q'
S't'
tp1734
S':ARG1'
p1735
s(S'p'
S'm'
tp1736
S':ARG0-f'
p1737
s(g1701
S'i'
tp1738
S':ARG1-of'
p1739
ssg40
(dp1740
I0
g13
sI1
VThis
p1741
sI2
Vwas
p1742
sI3
Va
sI4
Vmerchant
p1743
sI5
Vwho
p1744
sI6
Vsold
p1745
sI7
Vpills
p1746
sI8
Vthat
p1747
sI9
Vhad
p1748
sI10
Vbeen
p1749
sI11
Vinvented
p1750
sI12
Vto
p1751
sI13
Vquench
p1752
sI14
Vthirst
p1753
sI15
V.
ssg51
S'This was a merchant who sold pills that had been invented to quench thirst .'
p1754
sg53
(dp1755
g1701
(lp1756
S'0.0.0'
p1757
asS'i'
(lp1758
S'0.0.0.0'
p1759
asS'm'
(lp1760
S'0.1'
p1761
asg1705
(lp1762
S'0.2'
p1763
asS'q'
(lp1764
S'0.0.0.0.0'
p1765
asS'p'
(lp1766
S'0'
asS's'
(lp1767
S'0.0'
p1768
asS't'
(lp1769
S'0.0.0.0.0.0'
p1770
assg68
(dp1771
g1701
S'pill'
p1772
sS'i'
S'invent'
p1773
sS'm'
S'merchandise'
p1774
sg27
g73
sg1705
S'this'
p1775
sS'q'
S'quench'
p1776
sS'p'
S'person'
p1777
sS's'
S'sell'
p1778
sS't'
S'thirst'
p1779
ssg77
(dp1780
(I6
I4
tp1781
S':nsubj'
p1782
s(I11
I10
tp1783
S':auxpass'
p1784
s(I6
I7
tp1785
S':dobj'
p1786
s(I4
I6
tp1787
S':acl-relcl'
p1788
s(I11
I7
tp1789
S':nsubjpass'
p1790
s(I4
I5
tp1791
S':ref'
p1792
s(I7
I8
tp1793
S':ref'
p1794
s(I4
I15
tp1795
S':punct'
p1796
s(I11
I9
tp1797
S':aux'
p1798
s(I7
I11
tp1799
S':acl-relcl'
p1800
s(I13
I12
tp1801
S':mark'
p1802
s(I13
I14
tp1803
S':dobj'
p1804
s(I4
I3
tp1805
S':det'
p1806
s(I0
I4
tp1807
S':ROOT'
p1808
s(I4
I2
tp1809
S':cop'
p1810
s(I4
I1
tp1811
S':nsubj'
p1812
s(I11
I13
tp1813
S':nmod-to'
p1814
sssI20
(dp1815
g3
(dp1816
S'a'
S'0.0.1.1'
p1817
sS'none0'
p1818
S'0.0.0'
p1819
sS'i'
S'0.0.1.1.0'
p1820
sS'h'
S'0.0'
p1821
sS'm'
S'0.0.1.1.1.0'
p1822
sS'l'
S'0.0.1.0'
p1823
sS'o'
S'0.0.2'
p1824
sS'q'
S'0.0.1.1.1'
p1825
sS'p'
S'0.0.1'
p1826
sS's'
S'0'
sS'a2'
p1827
S'0.0.2.0'
p1828
sS's2'
p1829
S'0.0.1.1.1.0.0'
p1830
sS'e2'
p1831
S'0.0.3'
p1832
ssg11
(dp1833
I0
g13
sI1
S'the'
p1834
sI2
S'little'
p1835
sI3
S'prince'
p1836
sI4
S','
sI5
S'who'
p1837
sI6
S'ask'
p1838
sI7
S'I'
sI8
S'so'
p1839
sI9
S'many'
p1840
sI10
S'question'
p1841
sI11
S','
sI12
S'never'
p1842
sI13
S'seem'
p1843
sI14
S'to'
p1844
sI15
S'hear'
p1845
sI16
S'the'
p1846
sI17
S'one'
p1847
sI18
S'I'
sI19
S'ask'
p1848
sI20
S'he'
p1849
sI21
S'.'
ssg23
(dp1850
(S'q'
S'm'
tp1851
S':quant'
p1852
s(g1827
S'i'
tp1853
S':ARG0'
p1854
s(S'h'
S'o'
tp1855
S':ARG1'
p1856
s(S'o'
g1827
tp1857
S':ARG1-of'
p1858
s(S'p'
S'a'
tp1859
S':ARG0-of'
p1860
s(g1827
S'p'
tp1861
S':ARG2'
p1862
s(g27
S's'
tp1863
g29
s(S'a'
S'q'
tp1864
S':ARG1'
p1865
s(S'h'
S'p'
tp1866
S':ARG0'
p1867
s(S's'
S'h'
tp1868
S':ARG1'
p1869
s(S'h'
g1831
tp1870
S':time'
p1871
s(S'p'
S'l'
tp1872
S':mod'
p1873
s(S'a'
S'i'
tp1874
S':ARG2'
p1875
s(S'm'
g1829
tp1876
S':degree'
p1877
s(S'h'
S'none0'
tp1878
S':polarity'
p1879
ssg40
(dp1880
I0
g13
sI1
VThe
p1881
sI2
Vlittle
p1882
sI3
Vprince
p1883
sI4
V,
sI5
Vwho
p1884
sI6
Vasked
p1885
sI7
Vme
p1886
sI8
Vso
p1887
sI9
Vmany
p1888
sI10
Vquestions
p1889
sI11
V,
sI12
Vnever
p1890
sI13
Vseemed
p1891
sI14
Vto
p1892
sI15
Vhear
p1893
sI16
Vthe
p1894
sI17
Vones
p1895
sI18
VI
sI19
Vasked
p1896
sI20
Vhim
p1897
sI21
V.
ssg51
S'The little prince , who asked me so many questions , never seemed to hear the ones I asked him .'
p1898
sg53
(dp1899
S'a'
(lp1900
S'0.0.1.1'
p1901
asS'none0'
p1902
(lp1903
S'0.0.0'
p1904
asS'i'
(lp1905
S'0.0.1.1.0'
p1906
asS'h'
(lp1907
S'0.0'
p1908
asS'm'
(lp1909
S'0.0.1.1.1.0'
p1910
asS'l'
(lp1911
S'0.0.1.0'
p1912
asS'o'
(lp1913
S'0.0.2'
p1914
asS'q'
(lp1915
S'0.0.1.1.1'
p1916
asS'p'
(lp1917
S'0.0.1'
p1918
asS's'
(lp1919
S'0'
asg1827
(lp1920
S'0.0.2.0'
p1921
asg1829
(lp1922
S'0.0.1.1.1.0.0'
p1923
asg1831
(lp1924
S'0.0.3'
p1925
assg68
(dp1926
S'a'
S'ask'
p1927
sg1818
S'-'
sS'i'
S'i'
sS'h'
S'hear'
p1928
sg27
g73
sS'm'
S'many'
p1929
sS'l'
S'little'
p1930
sS'o'
S'one'
p1931
sS'q'
S'question'
p1932
sS'p'
S'prince'
p1933
sS's'
S'seem'
p1934
sg1827
S'ask'
p1935
sg1829
S'so'
p1936
sg1831
S'ever'
p1937
ssg77
(dp1938
(I10
I11
tp1939
S':punct'
p1940
s(I9
I8
tp1941
S':advmod'
p1942
s(I17
I16
tp1943
S':det'
p1944
s(I13
I21
tp1945
S':punct'
p1946
s(I13
I12
tp1947
S':neg'
p1948
s(I6
I7
tp1949
S':iobj'
p1950
s(I13
I3
tp1951
S':nsubj'
p1952
s(I6
I10
tp1953
S':dobj'
p1954
s(I6
I3
tp1955
S':nsubj'
p1956
s(I3
I6
tp1957
S':acl-relcl'
p1958
s(I3
I5
tp1959
S':ref'
p1960
s(I10
I9
tp1961
S':amod'
p1962
s(I3
I2
tp1963
S':amod'
p1964
s(I17
I19
tp1965
S':acl-relcl'
p1966
s(I15
I3
tp1967
S':nsubj'
p1968
s(I13
I15
tp1969
S':xcomp'
p1970
s(I19
I18
tp1971
S':nsubj'
p1972
s(I15
I14
tp1973
S':mark'
p1974
s(I19
I20
tp1975
S':dobj'
p1976
s(I15
I17
tp1977
S':dobj'
p1978
s(I3
I1
tp1979
S':det'
p1980
s(I0
I13
tp1981
S':ROOT'
p1982
s(I3
I4
tp1983
S':punct'
p1984
sssI21
(dp1985
g3
(dp1986
S'a'
S'0.1'
p1987
sS's2'
p1988
S'0.0'
p1989
sS'm'
S'0.0.1'
p1990
sS's'
S'0'
sS'v'
S'0.0.1.0'
p1991
sS'y'
S'0.0.0'
p1992
ssg11
(dp1993
I0
g13
sI1
S'at'
p1994
sI2
S'first'
p1995
sI3
S'you'
p1996
sI4
S'seem'
p1997
sI5
S'to'
p1998
sI6
S'be'
p1999
sI7
S'very'
p2000
sI8
S'much'
p2001
sI9
S'surprised'
p2002
sI10
S'.'
ssg23
(dp2003
(S's'
S'a'
tp2004
S':time'
p2005
s(g27
S's'
tp2006
g29
s(S's'
g1988
tp2007
S':ARG1'
p2008
s(S'm'
S'v'
tp2009
S':degree'
p2010
s(g1988
S'y'
tp2011
S':ARG1'
p2012
s(g1988
S'm'
tp2013
S':degree'
p2014
ssg40
(dp2015
I0
g13
sI1
VAt
p2016
sI2
Vfirst
p2017
sI3
Vyou
p2018
sI4
Vseemed
p2019
sI5
Vto
p2020
sI6
Vbe
p2021
sI7
Vvery
p2022
sI8
Vmuch
p2023
sI9
Vsurprised
p2024
sI10
V.
ssg51
S'At first you seemed to be very much surprised .'
p2025
sg53
(dp2026
S'a'
(lp2027
S'0.1'
p2028
asg1988
(lp2029
S'0.0'
p2030
asS'm'
(lp2031
S'0.0.1'
p2032
asS's'
(lp2033
S'0'
asS'v'
(lp2034
S'0.0.1.0'
p2035
asS'y'
(lp2036
S'0.0.0'
p2037
assg68
(dp2038
S'a'
S'at-first'
p2039
sg1988
S'surprise'
p2040
sg27
g73
sS'm'
S'much'
p2041
sS's'
S'seem'
p2042
sS'v'
S'very'
p2043
sS'y'
S'you'
p2044
ssg77
(dp2045
(I4
I10
tp2046
S':punct'
p2047
s(I4
I9
tp2048
S':xcomp'
p2049
s(I8
I7
tp2050
S':advmod'
p2051
s(I9
I8
tp2052
S':advmod'
p2053
s(I9
I3
tp2054
S':nsubj'
p2055
s(I2
I1
tp2056
S':case'
p2057
s(I0
I4
tp2058
S':ROOT'
p2059
s(I4
I3
tp2060
S':nsubj'
p2061
s(I9
I5
tp2062
S':mark'
p2063
s(I4
I2
tp2064
S':nmod-at'
p2065
s(I9
I6
tp2066
S':cop'
p2067
sssI22
(dp2068
g3
(dp2069
S's'
S'0'
sS'b'
S'0.0'
p2070
sS't2'
p2071
S'0.0.0'
p2072
sS'v2'
p2073
S'0.0.1'
p2074
ssg11
(dp2075
I0
g13
sI1
S'it'
p2076
sI2
S'seem'
p2077
sI3
S'that'
p2078
sI4
S'they'
p2079
sI5
S'be'
p2080
sI6
S'very'
p2081
sI7
S'beautiful'
p2082
sI8
S'.'
ssg23
(dp2083
(S'b'
g2071
tp2084
S':ARG1'
p2085
s(S'b'
g2073
tp2086
S':degree'
p2087
s(S's'
S'b'
tp2088
S':ARG1'
p2089
s(g27
S's'
tp2090
g29
ssg40
(dp2091
I0
g13
sI1
VIt
p2092
sI2
Vseems
p2093
sI3
Vthat
p2094
sI4
Vthey
p2095
sI5
Vare
p2096
sI6
Vvery
p2097
sI7
Vbeautiful
p2098
sI8
V.
ssg51
S'It seems that they are very beautiful .'
p2099
sg53
(dp2100
S's'
(lp2101
S'0'
asS'b'
(lp2102
S'0.0'
p2103
asg2071
(lp2104
S'0.0.0'
p2105
asg2073
(lp2106
S'0.0.1'
p2107
assg68
(dp2108
g27
g73
sS's'
S'seem'
p2109
sS'b'
S'beautiful'
p2110
sg2071
S'they'
p2111
sg2073
S'very'
p2112
ssg77
(dp2113
(I2
I7
tp2114
S':ccomp'
p2115
s(I7
I3
tp2116
S':mark'
p2117
s(I2
I8
tp2118
S':punct'
p2119
s(I7
I6
tp2120
S':advmod'
p2121
s(I2
I1
tp2122
S':nsubj'
p2123
s(I7
I4
tp2124
S':nsubj'
p2125
s(I7
I5
tp2126
S':cop'
p2127
s(I0
I2
tp2128
S':ROOT'
p2129
sssI23
(dp2130
g3
(dp2131
S'c'
S'0.2.1'
p2132
sS'none0'
p2133
S'0.0'
p2134
sS's2'
p2135
S'0.2'
p2136
sS's'
S'0.1'
p2137
sS'w'
S'0'
sS'h'
S'0.2.0'
p2138
ssg11
(dp2139
I0
g13
sI1
S'for'
p2140
sI2
S'she'
p2141
sI3
S'do'
p2142
sI4
S'not'
p2143
sI5
S'want'
p2144
sI6
S'he'
p2145
sI7
S'to'
p2146
sI8
S'see'
p2147
sI9
S'she'
p2148
sI10
S'cry'
p2149
sI11
S'.'
ssg23
(dp2150
(S'c'
S's'
tp2151
S':ARG0'
p2152
s(g2135
S'c'
tp2153
S':ARG1'
p2154
s(g2135
S'h'
tp2155
S':ARG0'
p2156
s(S'w'
g2135
tp2157
S':ARG1'
p2158
s(S'w'
S's'
tp2159
S':ARG0'
p2160
s(S'w'
S'none0'
tp2161
S':polarity'
p2162
s(g27
S'w'
tp2163
g29
ssg40
(dp2164
I0
g13
sI1
VFor
p2165
sI2
Vshe
p2166
sI3
Vdid
p2167
sI4
Vnot
p2168
sI5
Vwant
p2169
sI6
Vhim
p2170
sI7
Vto
p2171
sI8
Vsee
p2172
sI9
Vher
p2173
sI10
Vcrying
p2174
sI11
V.
ssg51
S'For she did not want him to see her crying .'
p2175
sg53
(dp2176
S'c'
(lp2177
S'0.2.1'
p2178
asS'none0'
p2179
(lp2180
S'0.0'
p2181
asg2135
(lp2182
S'0.2'
p2183
asS's'
(lp2184
S'0.1'
p2185
asS'w'
(lp2186
S'0'
asS'h'
(lp2187
S'0.2.0'
p2188
assg68
(dp2189
S'c'
S'cry'
p2190
sg2133
S'-'
sg2135
S'see'
p2191
sg27
g73
sS's'
S'she'
p2192
sS'w'
S'want'
p2193
sS'h'
S'he'
p2194
ssg77
(dp2195
(I5
I4
tp2196
S':neg'
p2197
s(I5
I11
tp2198
S':punct'
p2199
s(I5
I6
tp2200
S':dobj'
p2201
s(I8
I10
tp2202
S':dobj'
p2203
s(I0
I5
tp2204
S':ROOT'
p2205
s(I10
I9
tp2206
S':nmod-poss'
p2207
s(I8
I7
tp2208
S':mark'
p2209
s(I8
I6
tp2210
S':nsubj'
p2211
s(I5
I1
tp2212
S':mark'
p2213
s(I5
I2
tp2214
S':nsubj'
p2215
s(I5
I8
tp2216
S':xcomp'
p2217
s(I5
I3
tp2218
S':aux'
p2219
sssI24
(dp2220
g3
(dp2221
S'c'
S'0.0'
p2222
sS'e'
S'0.0.0.1.0'
p2223
sS'd'
S'0.0.0.1.1'
p2224
sS'h'
S'0.0.0.0'
p2225
sS'p'
S'0'
sS's'
S'0.0.0.1'
p2226
sS't'
S'0.0.0'
p2227
ssg11
(dp2228
I0
g13
sI1
S'perhaps'
p2229
sI2
S'that'
p2230
sI3
S'be'
p2231
sI4
S'because'
p2232
sI5
S'he'
p2233
sI6
S'be'
p2234
sI7
S'think'
p2235
sI8
S'of'
p2236
sI9
S'something'
p2237
sI10
S'else'
p2238
sI11
S'besides'
p2239
sI12
S'himself'
p2240
sI13
S'.'
ssg23
(dp2241
(S'd'
S'h'
tp2242
S':ARG2'
p2243
s(g27
S'p'
tp2244
g29
s(S'c'
S't'
tp2245
S':ARG0'
p2246
s(S's'
S'e'
tp2247
S':mod'
p2248
s(S'p'
S'c'
tp2249
S':ARG1'
p2250
s(S't'
S'h'
tp2251
S':ARG0'
p2252
s(S't'
S's'
tp2253
S':ARG2'
p2254
s(S's'
S'd'
tp2255
S':ARG1-of'
p2256
ssg40
(dp2257
I0
g13
sI1
VPerhaps
p2258
sI2
Vthat
p2259
sI3
Vis
p2260
sI4
Vbecause
p2261
sI5
Vhe
p2262
sI6
Vis
p2263
sI7
Vthinking
p2264
sI8
Vof
p2265
sI9
Vsomething
p2266
sI10
Velse
p2267
sI11
Vbesides
p2268
sI12
Vhimself
p2269
sI13
V.
ssg51
S'Perhaps that is because he is thinking of something else besides himself .'
p2270
sg53
(dp2271
S'c'
(lp2272
S'0.0'
p2273
asS'e'
(lp2274
S'0.0.0.1.0'
p2275
asS'd'
(lp2276
S'0.0.0.1.1'
p2277
asS'h'
(lp2278
S'0.0.0.0'
p2279
asS'p'
(lp2280
S'0'
asS's'
(lp2281
S'0.0.0.1'
p2282
asS't'
(lp2283
S'0.0.0'
p2284
assg68
(dp2285
S'c'
S'cause'
p2286
sS'e'
S'else'
p2287
sS'd'
S'differ'
p2288
sS'h'
S'he'
p2289
sg27
g73
sS'p'
S'possible'
p2290
sS's'
S'something'
p2291
sS't'
S'think'
p2292
ssg77
(dp2293
(I9
I10
tp2294
S':advmod'
p2295
s(I3
I2
tp2296
S':nsubj'
p2297
s(I3
I13
tp2298
S':punct'
p2299
s(I7
I6
tp2300
S':aux'
p2301
s(I3
I1
tp2302
S':advmod'
p2303
s(I10
I12
tp2304
S':nmod-besides'
p2305
s(I7
I4
tp2306
S':mark'
p2307
s(I7
I5
tp2308
S':nsubj'
p2309
s(I12
I11
tp2310
S':case'
p2311
s(I3
I7
tp2312
S':advcl'
p2313
s(I0
I3
tp2314
S':ROOT'
p2315
s(I9
I8
tp2316
S':case'
p2317
s(I7
I9
tp2318
S':nmod-of'
p2319
sssI25
(dp2320
g3
(dp2321
S'y'
S'0.0'
p2322
sS'a'
S'0.1'
p2323
sS'd2'
p2324
S'0'
ssg11
(dp2325
I0
g13
sI1
S'what'
p2326
sI2
S'be'
p2327
sI3
S'you'
p2328
sI4
S'do'
p2329
sI5
S'?'
ssg23
(dp2330
(g2324
S'a'
tp2331
S':ARG1'
p2332
s(g27
g2324
tp2333
g29
s(g2324
S'y'
tp2334
S':ARG0'
p2335
ssg40
(dp2336
I0
g13
sI1
VWhat
p2337
sI2
Vare
p2338
sI3
Vyou
p2339
sI4
Vdoing
p2340
sI5
V?
ssg51
S'What are you doing ?'
p2341
sg53
(dp2342
S'y'
(lp2343
S'0.0'
p2344
asS'a'
(lp2345
S'0.1'
p2346
asg2324
(lp2347
S'0'
assg68
(dp2348
S'y'
S'you'
p2349
sS'a'
S'amr-unknown'
p2350
sg27
g73
sg2324
S'do'
p2351
ssg77
(dp2352
(I4
I5
tp2353
S':punct'
p2354
s(I4
I2
tp2355
S':aux'
p2356
s(I4
I1
tp2357
S':dobj'
p2358
s(I4
I3
tp2359
S':nsubj'
p2360
s(I0
I4
tp2361
S':ROOT'
p2362
sssI26
(dp2363
g3
(dp2364
S'f'
S'0.1'
p2365
sS'i'
S'0.0'
p2366
sS'none0'
p2367
S'0.1.0.0'
p2368
sS't2'
p2369
S'0.1.0.1.0'
p2370
sS't3'
p2371
S'0.1.0.2'
p2372
sS'u2'
p2373
S'0.1.0'
p2374
sS'p'
S'0.1.0.1'
p2375
sS't'
S'0'
ssg11
(dp2376
I0
g13
sI1
S'I'
sI2
S'would'
p2377
sI3
S'try'
p2378
sI4
S'to'
p2379
sI5
S'find'
p2380
sI6
S'out'
p2381
sI7
S','
sI8
S'so'
p2382
sI9
S','
sI10
S'if'
p2383
sI11
S'this'
p2384
sI12
S'be'
p2385
sI13
S'a'
sI14
S'person'
p2386
sI15
S'of'
p2387
sI16
S'true'
p2388
sI17
S'understanding'
p2389
sI18
S'.'
ssg23
(dp2390
(g2373
g2371
tp2391
S':ARG1-of'
p2392
s(S'f'
g2373
tp2393
S':ARG1'
p2394
s(S't'
S'i'
tp2395
S':ARG0'
p2396
s(g27
S't'
tp2397
g29
s(g2373
S'none0'
tp2398
S':mode'
p2399
s(S'p'
g2369
tp2400
S':mod'
p2401
s(S't'
S'f'
tp2402
S':ARG1'
p2403
s(S'f'
S'i'
tp2404
S':ARG0'
p2405
s(g2373
S'p'
tp2406
S':ARG0'
p2407
ssg40
(dp2408
I0
g13
sI1
VI
sI2
Vwould
p2409
sI3
Vtry
p2410
sI4
Vto
p2411
sI5
Vfind
p2412
sI6
Vout
p2413
sI7
V,
sI8
Vso
p2414
sI9
V,
sI10
Vif
p2415
sI11
Vthis
p2416
sI12
Vwas
p2417
sI13
Va
sI14
Vperson
p2418
sI15
Vof
p2419
sI16
Vtrue
p2420
sI17
Vunderstanding
p2421
sI18
V.
ssg51
S'I would try to find out , so , if this was a person of true understanding .'
p2422
sg53
(dp2423
S'none0'
p2424
(lp2425
S'0.1.0.0'
p2426
asS'i'
(lp2427
S'0.0'
p2428
asS'f'
(lp2429
S'0.1'
p2430
asg2369
(lp2431
S'0.1.0.1.0'
p2432
asg2371
(lp2433
S'0.1.0.2'
p2434
asg2373
(lp2435
S'0.1.0'
p2436
asS'p'
(lp2437
S'0.1.0.1'
p2438
asS't'
(lp2439
S'0'
assg68
(dp2440
S'f'
S'find-out'
p2441
sS'i'
S'i'
sg27
g73
sg2367
S'interrogative'
p2442
sg2369
S'this'
p2443
sg2371
S'true'
p2444
sg2373
S'understand'
p2445
sS'p'
S'person'
p2446
sS't'
S'try'
p2447
ssg77
(dp2448
(I14
I11
tp2449
S':nsubj'
p2450
s(I5
I14
tp2451
S':advcl'
p2452
s(I5
I4
tp2453
S':mark'
p2454
s(I14
I10
tp2455
S':mark'
p2456
s(I5
I6
tp2457
S':compound-prt'
p2458
s(I3
I1
tp2459
S':nsubj'
p2460
s(I3
I2
tp2461
S':aux'
p2462
s(I14
I13
tp2463
S':det'
p2464
s(I3
I8
tp2465
S':advmod'
p2466
s(I14
I12
tp2467
S':cop'
p2468
s(I14
I17
tp2469
S':nmod-of'
p2470
s(I3
I9
tp2471
S':punct'
p2472
s(I3
I18
tp2473
S':punct'
p2474
s(I3
I7
tp2475
S':punct'
p2476
s(I5
I1
tp2477
S':nsubj'
p2478
s(I0
I3
tp2479
S':ROOT'
p2480
s(I17
I15
tp2481
S':case'
p2482
s(I17
I16
tp2483
S':amod'
p2484
s(I3
I5
tp2485
S':xcomp'
p2486
sssI27
(dp2487
g3
(dp2488
S'p2'
p2489
S'0.1.0.3'
p2490
sS'c'
S'0.2'
p2491
sS'i'
S'0.0'
p2492
sS't2'
p2493
S'0.1.0'
p2494
sS'm'
S'0.1'
p2495
sS'l'
S'0.1.0.1'
p2496
sS'p'
S'0.1.0.0'
p2497
sS't'
S'0'
sS'm2'
p2498
S'0.1.0.2'
p2499
ssg11
(dp2500
I0
g13
sI1
S'I'
sI2
S'shall'
p2501
sI3
S'certainly'
p2502
sI4
S'try'
p2503
sI5
S'to'
p2504
sI6
S'make'
p2505
sI7
S'my'
p2506
sI8
S'portrait'
p2507
sI9
S'as'
p2508
sI10
S'true'
p2509
sI11
S'to'
p2510
sI12
S'life'
p2511
sI13
S'as'
p2512
sI14
S'possible'
p2513
sI15
S'.'
ssg23
(dp2514
(S'p'
S'i'
tp2515
S':poss'
p2516
s(g2493
g2489
tp2517
S':compared-to'
p2518
s(g2493
S'l'
tp2519
S':ARG2'
p2520
s(S'm'
g2493
tp2521
S':ARG1'
p2522
s(S't'
S'c'
tp2523
S':mod'
p2524
s(S't'
S'i'
tp2525
S':ARG0'
p2526
s(g27
S't'
tp2527
g29
s(g2493
S'p'
tp2528
S':ARG1'
p2529
s(S't'
S'm'
tp2530
S':ARG1'
p2531
s(g2493
g2498
tp2532
S':degree'
p2533
s(S'm'
S'i'
tp2534
S':ARG0'
p2535
ssg40
(dp2536
I0
g13
sI1
VI
sI2
Vshall
p2537
sI3
Vcertainly
p2538
sI4
Vtry
p2539
sI5
Vto
p2540
sI6
Vmake
p2541
sI7
Vmy
p2542
sI8
Vportraits
p2543
sI9
Vas
p2544
sI10
Vtrue
p2545
sI11
Vto
p2546
sI12
Vlife
p2547
sI13
Vas
p2548
sI14
Vpossible
p2549
sI15
V.
ssg51
S'I shall certainly try to make my portraits as true to life as possible .'
p2550
sg53
(dp2551
g2489
(lp2552
S'0.1.0.3'
p2553
asS'c'
(lp2554
S'0.2'
p2555
asS'i'
(lp2556
S'0.0'
p2557
asS'm'
(lp2558
S'0.1'
p2559
asg2493
(lp2560
S'0.1.0'
p2561
asS'l'
(lp2562
S'0.1.0.1'
p2563
asS'p'
(lp2564
S'0.1.0.0'
p2565
asS't'
(lp2566
S'0'
asg2498
(lp2567
S'0.1.0.2'
p2568
assg68
(dp2569
g2489
S'possible'
p2570
sS'c'
S'certain'
p2571
sS'i'
S'i'
sg2493
S'true'
p2572
sg27
g73
sS'm'
S'make'
p2573
sS'l'
S'life'
p2574
sS'p'
S'portrait'
p2575
sS't'
S'try'
p2576
sg2498
S'most'
p2577
ssg77
(dp2578
(I8
I7
tp2579
S':nmod-poss'
p2580
s(I4
I6
tp2581
S':xcomp'
p2582
s(I6
I1
tp2583
S':nsubj'
p2584
s(I6
I10
tp2585
S':advcl'
p2586
s(I12
I11
tp2587
S':case'
p2588
s(I10
I12
tp2589
S':nmod-to'
p2590
s(I14
I13
tp2591
S':case'
p2592
s(I10
I14
tp2593
S':advcl-as'
p2594
s(I10
I9
tp2595
S':mark'
p2596
s(I4
I3
tp2597
S':advmod'
p2598
s(I0
I4
tp2599
S':ROOT'
p2600
s(I4
I2
tp2601
S':aux'
p2602
s(I4
I1
tp2603
S':nsubj'
p2604
s(I4
I15
tp2605
S':punct'
p2606
s(I6
I5
tp2607
S':mark'
p2608
s(I6
I8
tp2609
S':dobj'
p2610
sssI28
(dp2611
g3
(dp2612
S'd'
S'0.1.0.1.0'
p2613
sS'g'
S'0.1.0.1'
p2614
sS'none0'
p2615
S'0.2'
p2616
sS'h'
S'0.1.0'
p2617
sS't2'
p2618
S'0.1.0.0.0'
p2619
sS'o'
S'0.1'
p2620
sS's'
S'0.1.0.0'
p2621
sS't'
S'0'
sS'y'
S'0.0'
p2622
sS'g2'
p2623
S'0.1.0.1.0.0'
p2624
ssg11
(dp2625
I0
g13
sI1
S'do'
p2626
sI2
S'you'
p2627
sI3
S'think'
p2628
sI4
S'that'
p2629
sI5
S'this'
p2630
sI6
S'sheep'
p2631
sI7
S'will'
p2632
sI8
S'have'
p2633
sI9
S'to'
p2634
sI10
S'have'
p2635
sI11
S'a'
sI12
S'great'
p2636
sI13
S'deal'
p2637
sI14
S'of'
p2638
sI15
S'grass'
p2639
sI16
S'?'
ssg23
(dp2640
(S't'
S'o'
tp2641
S':ARG1'
p2642
s(S's'
g2618
tp2643
S':mod'
p2644
s(S'o'
S's'
tp2645
S':ARG1'
p2646
s(g27
S't'
tp2647
g29
s(S'g'
S'd'
tp2648
S':quant'
p2649
s(S'h'
S's'
tp2650
S':ARG0'
p2651
s(S'o'
S'h'
tp2652
S':ARG2'
p2653
s(S't'
S'none0'
tp2654
S':mode'
p2655
s(S'h'
S'g'
tp2656
S':ARG1'
p2657
s(S't'
S'y'
tp2658
S':ARG0'
p2659
s(S'd'
g2623
tp2660
S':mod'
p2661
ssg40
(dp2662
I0
g13
sI1
VDo
p2663
sI2
Vyou
p2664
sI3
Vthink
p2665
sI4
Vthat
p2666
sI5
Vthis
p2667
sI6
Vsheep
p2668
sI7
Vwill
p2669
sI8
Vhave
p2670
sI9
Vto
p2671
sI10
Vhave
p2672
sI11
Va
sI12
Vgreat
p2673
sI13
Vdeal
p2674
sI14
Vof
p2675
sI15
Vgrass
p2676
sI16
V?
ssg51
S'Do you think that this sheep will have to have a great deal of grass ?'
p2677
sg53
(dp2678
S'd'
(lp2679
S'0.1.0.1.0'
p2680
asS'g'
(lp2681
S'0.1.0.1'
p2682
asS'none0'
p2683
(lp2684
S'0.2'
p2685
asS'h'
(lp2686
S'0.1.0'
p2687
asg2618
(lp2688
S'0.1.0.0.0'
p2689
asS'o'
(lp2690
S'0.1'
p2691
asS's'
(lp2692
S'0.1.0.0'
p2693
asS't'
(lp2694
S'0'
asS'y'
(lp2695
S'0.0'
p2696
asg2623
(lp2697
S'0.1.0.1.0.0'
p2698
assg68
(dp2699
S'd'
S'deal'
p2700
sS'g'
S'grass'
p2701
sg2615
S'interrogative'
p2702
sS'h'
S'have'
p2703
sg27
g73
sg2618
S'this'
p2704
sS'o'
S'obligate'
p2705
sS's'
S'sheep'
p2706
sS't'
S'think'
p2707
sS'y'
S'you'
p2708
sg2623
S'great'
p2709
ssg77
(dp2710
(I3
I2
tp2711
S':nsubj'
p2712
s(I10
I6
tp2713
S':nsubj'
p2714
s(I13
I15
tp2715
S':nmod-of'
p2716
s(I10
I13
tp2717
S':dobj'
p2718
s(I3
I1
tp2719
S':aux'
p2720
s(I8
I10
tp2721
S':xcomp'
p2722
s(I3
I8
tp2723
S':ccomp'
p2724
s(I10
I9
tp2725
S':mark'
p2726
s(I8
I7
tp2727
S':aux'
p2728
s(I13
I12
tp2729
S':amod'
p2730
s(I3
I16
tp2731
S':punct'
p2732
s(I8
I6
tp2733
S':nsubj'
p2734
s(I0
I3
tp2735
S':ROOT'
p2736
s(I13
I11
tp2737
S':det'
p2738
s(I15
I14
tp2739
S':case'
p2740
s(I6
I5
tp2741
S':det'
p2742
s(I8
I4
tp2743
S':mark'
p2744
sssI29
(dp2745
g3
(dp2746
S'h'
S'0.0'
p2747
sS'c'
S'0'
sS'b'
S'0.1'
p2748
sS'none0'
p2749
S'0.2'
p2750
ssg11
(dp2751
I0
g13
sI1
S'do'
p2752
sI2
S'he'
p2753
sI3
S'collect'
p2754
sI4
S'butterfly'
p2755
sI5
S'?'
ssg23
(dp2756
(S'c'
S'none0'
tp2757
S':mode'
p2758
s(S'c'
S'b'
tp2759
S':ARG1'
p2760
s(S'c'
S'h'
tp2761
S':ARG0'
p2762
s(g27
S'c'
tp2763
g29
ssg40
(dp2764
I0
g13
sI1
VDoes
p2765
sI2
Vhe
p2766
sI3
Vcollect
p2767
sI4
Vbutterflies
p2768
sI5
V?
ssg51
S'Does he collect butterflies ?'
p2769
sg53
(dp2770
S'h'
(lp2771
S'0.0'
p2772
asS'c'
(lp2773
S'0'
asS'b'
(lp2774
S'0.1'
p2775
asS'none0'
p2776
(lp2777
S'0.2'
p2778
assg68
(dp2779
S'h'
S'he'
p2780
sS'c'
S'collect'
p2781
sS'b'
S'butterfly'
p2782
sg27
g73
sg2749
S'interrogative'
p2783
ssg77
(dp2784
(I0
I3
tp2785
S':ROOT'
p2786
s(I3
I1
tp2787
S':aux'
p2788
s(I3
I4
tp2789
S':dobj'
p2790
s(I3
I2
tp2791
S':nsubj'
p2792
s(I3
I5
tp2793
S':punct'
p2794
sssI30
(dp2795
g3
(dp2796
S'c'
S'0'
sS'b'
S'0.0.1.0'
p2797
sS'e'
S'0.0.1.0.0'
p2798
sS'none0'
p2799
S'0.0.1.0.1.1.0'
p2800
sS't2'
p2801
S'0.0.1.0.1.1'
p2802
sS'o'
S'0.0'
p2803
sS'n'
S'0.0.1.0.1.0'
p2804
sS'r'
S'0.0.1'
p2805
sS't'
S'0.0.1.0.0.0'
p2806
sS'b2'
p2807
S'0.0.1.0.1'
p2808
sS'y'
S'0.0.0'
p2809
sS'y2'
p2810
S'0.0.1.0.1.1.1'
p2811
ssg11
(dp2812
I0
g13
sI1
S'but'
p2813
sI2
S'you'
p2814
sI3
S'have'
p2815
sI4
S'to'
p2816
sI5
S'recognize'
p2817
sI6
S'that'
p2818
sI7
S'these'
p2819
sI8
S'event'
p2820
sI9
S'take'
p2821
sI10
S'place'
p2822
sI11
S'35'
p2823
sI12
S'year'
p2824
sI13
S'ago'
p2825
sI14
S'.'
ssg23
(dp2826
(g2801
g2810
tp2827
S':unit'
p2828
s(S'b'
g2807
tp2829
S':ARG2'
p2830
s(S'o'
S'r'
tp2831
S':ARG2'
p2832
s(g2807
g2801
tp2833
S':quant'
p2834
s(g2801
S'none0'
tp2835
S':quant'
p2836
s(g2807
S'n'
tp2837
S':op1'
p2838
s(S'o'
S'y'
tp2839
S':ARG1'
p2840
s(S'r'
S'y'
tp2841
S':ARG0'
p2842
s(S'r'
S'b'
tp2843
S':ARG1'
p2844
s(S'e'
S't'
tp2845
S':mod'
p2846
s(S'c'
S'o'
tp2847
S':ARG2'
p2848
s(S'b'
S'e'
tp2849
S':ARG1'
p2850
s(g27
S'c'
tp2851
g29
ssg40
(dp2852
I0
g13
sI1
VBut
p2853
sI2
Vyou
p2854
sI3
Vhave
p2855
sI4
Vto
p2856
sI5
Vrecognize
p2857
sI6
Vthat
p2858
sI7
Vthese
p2859
sI8
Vevents
p2860
sI9
Vtook
p2861
sI10
Vplace
p2862
sI11
V35
p2863
sI12
Vyears
p2864
sI13
Vago
p2865
sI14
V.
ssg51
S'But you have to recognize that these events took place 35 years ago .'
p2866
sg53
(dp2867
S'c'
(lp2868
S'0'
asS'b'
(lp2869
S'0.0.1.0'
p2870
asS'e'
(lp2871
S'0.0.1.0.0'
p2872
asS'none0'
p2873
(lp2874
S'0.0.1.0.1.1.0'
p2875
asg2801
(lp2876
S'0.0.1.0.1.1'
p2877
asS'o'
(lp2878
S'0.0'
p2879
asS'n'
(lp2880
S'0.0.1.0.1.0'
p2881
asS'r'
(lp2882
S'0.0.1'
p2883
asS't'
(lp2884
S'0.0.1.0.0.0'
p2885
asg2807
(lp2886
S'0.0.1.0.1'
p2887
asS'y'
(lp2888
S'0.0.0'
p2889
asg2810
(lp2890
S'0.0.1.0.1.1.1'
p2891
assg68
(dp2892
S'c'
S'contrast'
p2893
sS'b'
S'be-temporally-at'
p2894
sS'e'
S'event'
p2895
sg2799
S'35'
p2896
sg27
g73
sg2801
S'temporal-quantity'
p2897
sS'o'
S'obligate'
p2898
sS'n'
S'now'
p2899
sS'r'
S'recognize'
p2900
sS't'
S'this'
p2901
sg2807
S'before'
p2902
sS'y'
S'you'
p2903
sg2810
S'year'
p2904
ssg77
(dp2905
(I5
I9
tp2906
S':ccomp'
p2907
s(I5
I4
tp2908
S':mark'
p2909
s(I12
I11
tp2910
S':nummod'
p2911
s(I9
I13
tp2912
S':advmod'
p2913
s(I9
I6
tp2914
S':mark'
p2915
s(I9
I8
tp2916
S':nsubj'
p2917
s(I3
I1
tp2918
S':cc'
p2919
s(I3
I2
tp2920
S':nsubj'
p2921
s(I9
I10
tp2922
S':dobj'
p2923
s(I8
I7
tp2924
S':det'
p2925
s(I13
I12
tp2926
S':nmod-npmod'
p2927
s(I0
I3
tp2928
S':ROOT'
p2929
s(I5
I2
tp2930
S':nsubj'
p2931
s(I3
I14
tp2932
S':punct'
p2933
s(I3
I5
tp2934
S':xcomp'
p2935
sssI31
(dp2936
g3
(dp2937
S'g5'
p2938
S'0.2.0.1.0.0'
p2939
sS'g4'
p2940
S'0.0'
p2941
sS'g3'
p2942
S'0.2.0.0'
p2943
sS'g2'
p2944
S'0.2.0.1.0.0.0'
p2945
sS'none1'
p2946
S'0.2.0.0.0.0'
p2947
sS'none0'
p2948
S'0.1.0.1.0.0'
p2949
sS's3'
p2950
S'0.1.0.0'
p2951
sS's2'
p2952
S'0.1'
p2953
sS'f'
S'0.0.1'
p2954
sS'c'
S'0.2'
p2955
sS'n'
S'0.1.0.1.0'
p2956
sS'g'
S'0.0.0'
p2957
sS's'
S'0'
sS'b'
S'0.1.0'
p2958
sS'c3'
p2959
S'0.1.0.1'
p2960
sS'n2'
p2961
S'0.2.0.0.0'
p2962
sS'c4'
p2963
S'0.2.0.1'
p2964
sS'l'
S'0.2.0'
p2965
sS'none2'
p2966
S'0.2.0.2'
p2967
sS'd'
S'0.2.0.1.0'
p2968
ssg11
(dp2969
I0
g13
sI1
S'the'
p2970
sI2
S'federal'
p2971
sI3
S'government'
p2972
sI4
S'suspend'
p2973
sI5
S'sale'
p2974
sI6
S'of'
p2975
sI7
S'U.S.'
p2976
sI8
S'savings'
p2977
sI9
S'bond'
p2978
sI10
S'because'
p2979
sI11
S'Congress'
p2980
sI12
S'have'
p2981
sI13
S'not'
p2982
sI14
S'lift'
p2983
sI15
S'the'
p2984
sI16
S'ceiling'
p2985
sI17
S'on'
p2986
sI18
S'government'
p2987
sI19
S'debt'
p2988
sI20
S'.'
ssg23
(dp2989
(S'b'
g2959
tp2990
S':mod'
p2991
s(S'l'
g2963
tp2992
S':ARG1'
p2993
s(S's'
g2940
tp2994
S':ARG0'
p2995
s(g2940
S'g'
tp2996
S':ARG0-of'
p2997
s(S's'
S'c'
tp2998
S':ARG1-of'
p2999
s(S'l'
g2942
tp3000
S':ARG0'
p3001
s(g2952
S'b'
tp3002
S':ARG1'
p3003
s(S'l'
S'none2'
tp3004
S':polarity'
p3005
s(g2959
S'n'
tp3006
S':name'
p3007
s(g27
S's'
tp3008
g29
s(S'b'
g2950
tp3009
S':mod'
p3010
s(g2942
g2961
tp3011
S':name'
p3012
s(S'c'
S'l'
tp3013
S':ARG0'
p3014
s(S'n'
S'none0'
tp3015
S':op1'
p3016
s(S's'
g2952
tp3017
S':ARG1'
p3018
s(g2963
S'd'
tp3019
S':prep-on'
p3020
s(g2940
S'f'
tp3021
S':mod'
p3022
s(g2938
g2944
tp3023
S':ARG0-of'
p3024
s(g2961
S'none1'
tp3025
S':op1'
p3026
s(S'd'
g2938
tp3027
S':mod'
p3028
ssg40
(dp3029
I0
g13
sI1
VThe
p3030
sI2
Vfederal
p3031
sI3
Vgovernment
p3032
sI4
Vsuspended
p3033
sI5
Vsales
p3034
sI6
Vof
p3035
sI7
VU.S.
p3036
sI8
Vsavings
p3037
sI9
Vbonds
p3038
sI10
Vbecause
p3039
sI11
VCongress
p3040
sI12
Vhas
p3041
sI13
Vn't
p3042
sI14
Vlifted
p3043
sI15
Vthe
p3044
sI16
Vceiling
p3045
sI17
Von
p3046
sI18
Vgovernment
p3047
sI19
Vdebt
p3048
sI20
V.
ssg51
S"The federal government suspended sales of U.S. savings bonds because Congress has n't lifted the ceiling on government debt ."
p3049
sg53
(dp3050
g2938
(lp3051
S'0.2.0.1.0.0'
p3052
asg2940
(lp3053
S'0.0'
p3054
asg2942
(lp3055
S'0.2.0.0'
p3056
asg2944
(lp3057
S'0.2.0.1.0.0.0'
p3058
asS'none1'
p3059
(lp3060
S'0.2.0.0.0.0'
p3061
asS'none0'
p3062
(lp3063
S'0.1.0.1.0.0'
p3064
asg2950
(lp3065
S'0.1.0.0'
p3066
asg2952
(lp3067
S'0.1'
p3068
asS'f'
(lp3069
S'0.0.1'
p3070
asS'c'
(lp3071
S'0.2'
p3072
asS'd'
(lp3073
S'0.2.0.1.0'
p3074
asS'g'
(lp3075
S'0.0.0'
p3076
asS's'
(lp3077
S'0'
asS'b'
(lp3078
S'0.1.0'
p3079
asg2959
(lp3080
S'0.1.0.1'
p3081
asS'n'
(lp3082
S'0.1.0.1.0'
p3083
asg2961
(lp3084
S'0.2.0.0.0'
p3085
asg2963
(lp3086
S'0.2.0.1'
p3087
asS'l'
(lp3088
S'0.2.0'
p3089
asS'none2'
p3090
(lp3091
S'0.2.0.2'
p3092
assg68
(dp3093
g2938
S'government-organization'
p3094
sg2940
S'government-organization'
p3095
sg2942
S'government-organization'
p3096
sg2944
S'govern'
p3097
sg2946
S'Congress'
p3098
sg2948
S'U.S.'
p3099
sg2950
S'savings'
p3100
sg2952
S'sell'
p3101
sg27
g73
sS'f'
S'federal'
p3102
sS'c'
S'cause'
p3103
sS'n'
S'name'
p3104
sS'g'
S'govern'
p3105
sS's'
S'suspend'
p3106
sS'b'
S'bond'
p3107
sg2959
S'country'
p3108
sg2961
S'name'
p3109
sg2963
S'ceiling'
p3110
sS'l'
S'lift'
p3111
sg2966
S'-'
sS'd'
S'debt'
p3112
ssg77
(dp3113
(I14
I11
tp3114
S':nsubj'
p3115
s(I5
I9
tp3116
S':nmod-of'
p3117
s(I3
I2
tp3118
S':amod'
p3119
s(I14
I10
tp3120
S':mark'
p3121
s(I16
I15
tp3122
S':det'
p3123
s(I19
I17
tp3124
S':case'
p3125
s(I14
I16
tp3126
S':dobj'
p3127
s(I4
I5
tp3128
S':dobj'
p3129
s(I9
I8
tp3130
S':compound'
p3131
s(I3
I1
tp3132
S':det'
p3133
s(I4
I14
tp3134
S':advcl'
p3135
s(I14
I13
tp3136
S':neg'
p3137
s(I14
I12
tp3138
S':aux'
p3139
s(I19
I18
tp3140
S':compound'
p3141
s(I4
I3
tp3142
S':nsubj'
p3143
s(I0
I4
tp3144
S':ROOT'
p3145
s(I16
I19
tp3146
S':nmod-on'
p3147
s(I4
I20
tp3148
S':punct'
p3149
s(I9
I6
tp3150
S':case'
p3151
s(I9
I7
tp3152
S':compound'
p3153
sssI32
(dp3154
g3
(dp3155
S'a'
S'0'
sS'c'
S'0.0.0'
p3156
sS'd'
S'0.0'
p3157
sS'g'
S'0.0.1.0'
p3158
sS'f'
S'0.0.1.1.3.0.0'
p3159
sS'm'
S'0.0.1.1.2'
p3160
sS'o'
S'0.0.1.1'
p3161
sS'p'
S'0.0.1.1.3'
p3162
sS's'
S'0.0.1.1.1'
p3163
sS'r'
S'0.0.1.1.0'
p3164
sS't'
S'0.0.1'
p3165
sS'r2'
p3166
S'0.0.1.1.1.0'
p3167
sS'o2'
p3168
S'0.0.1.1.3.0'
p3169
ssg11
(dp3170
I0
g13
sI1
S'and'
p3171
sI2
S'the'
p3172
sI3
S'city'
p3173
sI4
S'decide'
p3174
sI5
S'to'
p3175
sI6
S'treat'
p3176
sI7
S'its'
p3177
sI8
S'guest'
p3178
sI9
S'more'
p3179
sI10
S'like'
p3180
sI11
S'royalty'
p3181
sI12
S'or'
p3182
sI13
S'rock'
p3183
sI14
S'star'
p3184
sI15
S'than'
p3185
sI16
S'factory'
p3186
sI17
S'owner'
p3187
sI18
S'.'
ssg23
(dp3188
(S't'
S'o'
tp3189
S':ARG2'
p3190
s(S'o'
S'p'
tp3191
S':compared-to'
p3192
s(g3168
S'f'
tp3193
S':ARG1'
p3194
s(S's'
g3166
tp3195
S':mod'
p3196
s(S'o'
S'r'
tp3197
S':op1'
p3198
s(S'p'
g3168
tp3199
S':ARG0-of'
p3200
s(S'o'
S's'
tp3201
S':op2'
p3202
s(S't'
S'c'
tp3203
S':ARG0'
p3204
s(S'o'
S'm'
tp3205
S':degree'
p3206
s(S'g'
S'c'
tp3207
S':poss'
p3208
s(S'a'
S'd'
tp3209
S':op2'
p3210
s(S'd'
S't'
tp3211
S':ARG1'
p3212
s(S't'
S'g'
tp3213
S':ARG1'
p3214
s(g27
S'a'
tp3215
g29
s(S'd'
S'c'
tp3216
S':ARG0'
p3217
ssg40
(dp3218
I0
g13
sI1
VAnd
p3219
sI2
Vthe
p3220
sI3
Vcity
p3221
sI4
Vdecided
p3222
sI5
Vto
p3223
sI6
Vtreat
p3224
sI7
Vits
p3225
sI8
Vguests
p3226
sI9
Vmore
p3227
sI10
Vlike
p3228
sI11
Vroyalty
p3229
sI12
Vor
p3230
sI13
Vrock
p3231
sI14
Vstars
p3232
sI15
Vthan
p3233
sI16
Vfactory
p3234
sI17
Vowners
p3235
sI18
V.
ssg51
S'And the city decided to treat its guests more like royalty or rock stars than factory owners .'
p3236
sg53
(dp3237
S'a'
(lp3238
S'0'
asS'c'
(lp3239
S'0.0.0'
p3240
asS'd'
(lp3241
S'0.0'
p3242
asS'g'
(lp3243
S'0.0.1.0'
p3244
asS'f'
(lp3245
S'0.0.1.1.3.0.0'
p3246
asS'm'
(lp3247
S'0.0.1.1.2'
p3248
asS'o'
(lp3249
S'0.0.1.1'
p3250
asS'p'
(lp3251
S'0.0.1.1.3'
p3252
asS's'
(lp3253
S'0.0.1.1.1'
p3254
asS'r'
(lp3255
S'0.0.1.1.0'
p3256
asS't'
(lp3257
S'0.0.1'
p3258
asg3166
(lp3259
S'0.0.1.1.1.0'
p3260
asg3168
(lp3261
S'0.0.1.1.3.0'
p3262
assg68
(dp3263
S'a'
S'and'
p3264
sS'c'
S'city'
p3265
sS'd'
S'decide'
p3266
sS'g'
S'guest'
p3267
sS'f'
S'factory'
p3268
sg27
g73
sS'm'
S'more'
p3269
sS'o'
S'or'
p3270
sS'p'
S'person'
p3271
sS's'
S'star'
p3272
sS'r'
S'royalty'
p3273
sS't'
S'treat'
p3274
sg3166
S'rock'
p3275
sg3168
S'own'
p3276
ssg77
(dp3277
(I11
I14
tp3278
S':conj-or'
p3279
s(I8
I14
tp3280
S':nmod-like'
p3281
s(I3
I2
tp3282
S':det'
p3283
s(I11
I17
tp3284
S':nmod-than'
p3285
s(I8
I7
tp3286
S':nmod-poss'
p3287
s(I4
I6
tp3288
S':xcomp'
p3289
s(I11
I12
tp3290
S':cc'
p3291
s(I8
I11
tp3292
S':nmod-like'
p3293
s(I11
I9
tp3294
S':advmod'
p3295
s(I11
I10
tp3296
S':case'
p3297
s(I14
I13
tp3298
S':compound'
p3299
s(I6
I3
tp3300
S':nsubj'
p3301
s(I4
I18
tp3302
S':punct'
p3303
s(I4
I3
tp3304
S':nsubj'
p3305
s(I0
I4
tp3306
S':ROOT'
p3307
s(I17
I16
tp3308
S':compound'
p3309
s(I17
I15
tp3310
S':case'
p3311
s(I4
I1
tp3312
S':cc'
p3313
s(I6
I5
tp3314
S':mark'
p3315
s(I6
I8
tp3316
S':dobj'
p3317
sssI33
(dp3318
g3
(dp3319
S'a'
S'0.1'
p3320
sS'p2'
p3321
S'0.0'
p3322
sS'c'
S'0.1.0'
p3323
sS'e'
S'0.0.0.1'
p3324
sS'd'
S'0'
sS'none1'
p3325
S'0.0.0.0.0.0.1'
p3326
sS'none0'
p3327
S'0.0.0.0.0.0.0'
p3328
sS'h'
S'0.0.0'
p3329
sS'r3'
p3330
S'0.3'
p3331
sS'n'
S'0.0.0.0.0.0'
p3332
sS'p'
S'0.1.1'
p3333
sS'a2'
p3334
S'0.2'
p3335
sS't'
S'0.0.0.0.0'
p3336
sS's2'
p3337
S'0.3.0.0'
p3338
sS'c2'
p3339
S'0.0.0.0'
p3340
sS'r'
S'0.2.0'
p3341
sS'd2'
p3342
S'0.1.1.0'
p3343
sS'd3'
p3344
S'0.3.0'
p3345
ssg11
(dp3346
I0
g13
sI1
S'after'
p3347
sI2
S'the'
p3348
sI3
S'race'
p3349
sI4
S','
sI5
S'fortune'
p3350
sI6
S'500'
p3351
sI7
S'executive'
p3352
sI8
S'drool'
p3353
sI9
S'like'
p3354
sI10
S'schoolboy'
p3355
sI11
S'over'
p3356
sI12
S'the'
p3357
sI13
S'car'
p3358
sI14
S'and'
p3359
sI15
S'driver'
p3360
sI16
S'.'
ssg23
(dp3361
(g3330
g3344
tp3362
S':ARG2'
p3363
s(S't'
S'n'
tp3364
S':name'
p3365
s(S'h'
S'e'
tp3366
S':ARG2'
p3367
s(S'p'
g3342
tp3368
S':ARG0-of'
p3369
s(S'd'
S'a'
tp3370
S':ARG1'
p3371
s(S'd'
g3330
tp3372
S':ARG1-of'
p3373
s(g27
S'd'
tp3374
g29
s(S'a'
S'c'
tp3375
S':op1'
p3376
s(S'a'
S'p'
tp3377
S':op2'
p3378
s(S'n'
S'none1'
tp3379
S':op2'
p3380
s(S'n'
S'none0'
tp3381
S':op1'
p3382
s(S'd'
g3321
tp3383
S':ARG0'
p3384
s(g3344
g3337
tp3385
S':ARG0'
p3386
s(g3321
S'h'
tp3387
S':ARG0-of'
p3388
s(g3339
S't'
tp3389
S':mod'
p3390
s(S'd'
g3334
tp3391
S':time'
p3392
s(S'h'
g3339
tp3393
S':ARG1'
p3394
s(g3334
S'r'
tp3395
S':op1'
p3396
ssg40
(dp3397
I0
g13
sI1
VAfter
p3398
sI2
Vthe
p3399
sI3
Vrace
p3400
sI4
V,
sI5
VFortune
p3401
sI6
V500
p3402
sI7
Vexecutives
p3403
sI8
Vdrooled
p3404
sI9
Vlike
p3405
sI10
Vschoolboys
p3406
sI11
Vover
p3407
sI12
Vthe
p3408
sI13
Vcars
p3409
sI14
Vand
p3410
sI15
Vdrivers
p3411
sI16
V.
ssg51
S'After the race , Fortune 500 executives drooled like schoolboys over the cars and drivers .'
p3412
sg53
(dp3413
S'a'
(lp3414
S'0.1'
p3415
asg3321
(lp3416
S'0.0'
p3417
asS'c'
(lp3418
S'0.1.0'
p3419
asS'e'
(lp3420
S'0.0.0.1'
p3421
asS'd'
(lp3422
S'0'
asS'none1'
p3423
(lp3424
S'0.0.0.0.0.0.1'
p3425
asS'none0'
p3426
(lp3427
S'0.0.0.0.0.0.0'
p3428
asS'h'
(lp3429
S'0.0.0'
p3430
asg3330
(lp3431
S'0.3'
p3432
asS'n'
(lp3433
S'0.0.0.0.0.0'
p3434
asS'p'
(lp3435
S'0.1.1'
p3436
asg3334
(lp3437
S'0.2'
p3438
asS't'
(lp3439
S'0.0.0.0.0'
p3440
asg3337
(lp3441
S'0.3.0.0'
p3442
asg3339
(lp3443
S'0.0.0.0'
p3444
asS'r'
(lp3445
S'0.2.0'
p3446
asg3342
(lp3447
S'0.1.1.0'
p3448
asg3344
(lp3449
S'0.3.0'
p3450
assg68
(dp3451
S'a'
S'and'
p3452
sg3321
S'person'
p3453
sS'c'
S'car'
p3454
sS'e'
S'executive'
p3455
sS'd'
S'drool'
p3456
sg3325
S'500'
p3457
sg3327
S'Fortune'
p3458
sS'h'
S'have-org-role'
p3459
sg27
g73
sg3330
S'resemble'
p3460
sS'n'
S'name'
p3461
sS'p'
S'person'
p3462
sg3334
S'after'
p3463
sS't'
S'thing'
p3464
sg3337
S'schoolboy'
p3465
sg3339
S'company'
p3466
sS'r'
S'race'
p3467
sg3342
S'drive'
p3468
sg3344
S'drool'
p3469
ssg77
(dp3470
(I3
I2
tp3471
S':det'
p3472
s(I13
I15
tp3473
S':conj-and'
p3474
s(I8
I13
tp3475
S':nmod-over'
p3476
s(I5
I6
tp3477
S':compound'
p3478
s(I8
I16
tp3479
S':punct'
p3480
s(I3
I1
tp3481
S':case'
p3482
s(I8
I3
tp3483
S':nmod-after'
p3484
s(I8
I10
tp3485
S':nmod-like'
p3486
s(I8
I15
tp3487
S':nmod-over'
p3488
s(I13
I14
tp3489
S':cc'
p3490
s(I7
I5
tp3491
S':compound'
p3492
s(I13
I11
tp3493
S':case'
p3494
s(I8
I7
tp3495
S':nsubj'
p3496
s(I13
I12
tp3497
S':det'
p3498
s(I0
I8
tp3499
S':ROOT'
p3500
s(I10
I9
tp3501
S':case'
p3502
s(I8
I4
tp3503
S':punct'
p3504
sssI34
(dp3505
g3
(dp3506
S'a'
S'0'
sS'c'
S'0.0'
p3507
sS'b'
S'0.0.2'
p3508
sS'e'
S'0.1.0.0.0'
p3509
sS'd'
S'0.0.1.0'
p3510
sS'i'
S'0.0.0'
p3511
sS'm'
S'0.0.2.0'
p3512
sS'p'
S'0.0.1'
p3513
sS'a3'
p3514
S'0.2'
p3515
sS'a2'
p3516
S'0.1.0.0'
p3517
sS'l2'
p3518
S'0.1.0.2'
p3519
sS't'
S'0.1.0.1'
p3520
sS'c3'
p3521
S'0.1.0'
p3522
sS'c2'
p3523
S'0.1'
p3524
ssg11
(dp3525
I0
g13
sI1
S'already'
p3526
sI2
S'it'
p3527
sI3
S'be'
p3528
sI4
S'change'
p3529
sI5
S'development'
p3530
sI6
S'pattern'
p3531
sI7
S'for'
p3532
sI8
S'the'
p3533
sI9
S'worse'
p3534
sI10
S'and'
p3535
sI11
S'cause'
p3536
sI12
S'localized'
p3537
sI13
S'traffic'
p3538
sI14
S'congestion'
p3539
sI15
S'around'
p3540
sI16
S'its'
p3541
sI17
S'exit'
p3542
sI18
S'.'
ssg23
(dp3543
(S'p'
S'd'
tp3544
S':mod'
p3545
s(g3521
g3516
tp3546
S':ARG1'
p3547
s(S'b'
S'm'
tp3548
S':degree'
p3549
s(S'e'
S'i'
tp3550
S':poss'
p3551
s(S'a'
g3523
tp3552
S':op2'
p3553
s(S'c'
S'i'
tp3554
S':ARG0'
p3555
s(g3523
g3521
tp3556
S':ARG1'
p3557
s(g3516
S'e'
tp3558
S':op1'
p3559
s(S'a'
g3514
tp3560
S':time'
p3561
s(S'c'
S'b'
tp3562
S':ARG2'
p3563
s(g27
S'a'
tp3564
g29
s(g3523
S'i'
tp3565
S':ARG0'
p3566
s(g3521
S't'
tp3567
S':ARG2'
p3568
s(S'a'
S'c'
tp3569
S':op1'
p3570
s(S'c'
S'p'
tp3571
S':ARG1'
p3572
s(g3521
g3518
tp3573
S':ARG1-of'
p3574
ssg40
(dp3575
I0
g13
sI1
VAlready
p3576
sI2
Vit
p3577
sI3
Vis
p3578
sI4
Vchanging
p3579
sI5
Vdevelopment
p3580
sI6
Vpatterns
p3581
sI7
Vfor
p3582
sI8
Vthe
p3583
sI9
Vworse
p3584
sI10
Vand
p3585
sI11
Vcausing
p3586
sI12
Vlocalized
p3587
sI13
Vtraffic
p3588
sI14
Vcongestion
p3589
sI15
Varound
p3590
sI16
Vits
p3591
sI17
Vexits
p3592
sI18
V.
ssg51
S'Already it is changing development patterns for the worse and causing localized traffic congestion around its exits .'
p3593
sg53
(dp3594
S'a'
(lp3595
S'0'
asS'c'
(lp3596
S'0.0'
p3597
asS'b'
(lp3598
S'0.0.2'
p3599
asS'e'
(lp3600
S'0.1.0.0.0'
p3601
asS'd'
(lp3602
S'0.0.1.0'
p3603
asS'i'
(lp3604
S'0.0.0'
p3605
asS'm'
(lp3606
S'0.0.2.0'
p3607
asS'p'
(lp3608
S'0.0.1'
p3609
asg3514
(lp3610
S'0.2'
p3611
asg3516
(lp3612
S'0.1.0.0'
p3613
asg3518
(lp3614
S'0.1.0.2'
p3615
asS't'
(lp3616
S'0.1.0.1'
p3617
asg3521
(lp3618
S'0.1.0'
p3619
asg3523
(lp3620
S'0.1'
p3621
assg68
(dp3622
S'a'
S'and'
p3623
sS'c'
S'change'
p3624
sS'b'
S'bad'
p3625
sS'e'
S'exit'
p3626
sS'd'
S'develop'
p3627
sS'i'
S'it'
p3628
sg27
g73
sS'm'
S'more'
p3629
sS'p'
S'pattern'
p3630
sg3514
S'already'
p3631
sg3516
S'around'
p3632
sg3518
S'localize'
p3633
sS't'
S'traffic'
p3634
sg3521
S'congest'
p3635
sg3523
S'cause'
p3636
ssg77
(dp3637
(I4
I10
tp3638
S':cc'
p3639
s(I11
I14
tp3640
S':dobj'
p3641
s(I11
I17
tp3642
S':nmod-around'
p3643
s(I4
I9
tp3644
S':nmod-for'
p3645
s(I4
I6
tp3646
S':dobj'
p3647
s(I4
I18
tp3648
S':punct'
p3649
s(I9
I8
tp3650
S':det'
p3651
s(I14
I13
tp3652
S':compound'
p3653
s(I14
I12
tp3654
S':amod'
p3655
s(I4
I11
tp3656
S':conj-and'
p3657
s(I4
I3
tp3658
S':aux'
p3659
s(I0
I4
tp3660
S':ROOT'
p3661
s(I4
I2
tp3662
S':nsubj'
p3663
s(I17
I16
tp3664
S':nmod-poss'
p3665
s(I17
I15
tp3666
S':case'
p3667
s(I4
I1
tp3668
S':advmod'
p3669
s(I6
I5
tp3670
S':compound'
p3671
s(I9
I7
tp3672
S':case'
p3673
sssI35
(dp3674
g3
(dp3675
S'a'
S'0.1'
p3676
sS'b'
S'0'
sS'none1'
p3677
S'0.0.0.1'
p3678
sS'none0'
p3679
S'0.0.0.0'
p3680
sS'h'
S'0.0.0'
p3681
sS'n'
S'0.2'
p3682
sS'p'
S'0.0'
p3683
sS'y'
S'0.2.0'
p3684
ssg11
(dp3685
I0
g13
sI1
S'where'
p3686
sI2
S"'s"
p3687
sI3
S'Homer'
p3688
sI4
S'Simpson'
p3689
sI5
S'when'
p3690
sI6
S'you'
p3691
sI7
S'need'
p3692
sI8
S'he'
p3693
sI9
S'?'
ssg23
(dp3694
(S'b'
S'n'
tp3695
S':time'
p3696
s(S'n'
S'y'
tp3697
S':ARG0'
p3698
s(S'p'
S'h'
tp3699
S':name'
p3700
s(S'b'
S'a'
tp3701
S':ARG2'
p3702
s(g27
S'b'
tp3703
g29
s(S'n'
S'p'
tp3704
S':ARG1'
p3705
s(S'b'
S'p'
tp3706
S':ARG1'
p3707
s(S'h'
S'none1'
tp3708
S':op2'
p3709
s(S'h'
S'none0'
tp3710
S':op1'
p3711
ssg40
(dp3712
I0
g13
sI1
VWhere
p3713
sI2
V's
p3714
sI3
VHomer
p3715
sI4
VSimpson
p3716
sI5
Vwhen
p3717
sI6
Vyou
p3718
sI7
Vneed
p3719
sI8
Vhim
p3720
sI9
V?
ssg51
S"Where 's Homer Simpson when you need him ?"
p3721
sg53
(dp3722
S'a'
(lp3723
S'0.1'
p3724
asS'b'
(lp3725
S'0'
asS'none1'
p3726
(lp3727
S'0.0.0.1'
p3728
asS'none0'
p3729
(lp3730
S'0.0.0.0'
p3731
asS'h'
(lp3732
S'0.0.0'
p3733
asS'n'
(lp3734
S'0.2'
p3735
asS'p'
(lp3736
S'0.0'
p3737
asS'y'
(lp3738
S'0.2.0'
p3739
assg68
(dp3740
S'a'
S'amr-unknown'
p3741
sS'b'
S'be-located-at'
p3742
sg3677
S'Simpson'
p3743
sg3679
S'Homer'
p3744
sS'h'
S'name'
p3745
sg27
g73
sS'n'
S'need'
p3746
sS'p'
S'person'
p3747
sS'y'
S'you'
p3748
ssg77
(dp3749
(I4
I7
tp3750
S':advcl'
p3751
s(I4
I9
tp3752
S':punct'
p3753
s(I7
I8
tp3754
S':dobj'
p3755
s(I7
I6
tp3756
S':nsubj'
p3757
s(I7
I5
tp3758
S':advmod'
p3759
s(I4
I3
tp3760
S':compound'
p3761
s(I0
I4
tp3762
S':ROOT'
p3763
s(I4
I2
tp3764
S':cop'
p3765
s(I4
I1
tp3766
S':advmod'
p3767
sssI36
(dp3768
g3
(dp3769
S'b'
S'0.1.1'
p3770
sS'd'
S'0.0'
p3771
sS'r2'
p3772
S'0'
sS'r3'
p3773
S'0.1.1.0'
p3774
sS'none0'
p3775
S'0.0.0.0'
p3776
sS'p'
S'0.1.1.2'
p3777
sS'r'
S'0.1'
p3778
sS't'
S'0.0.0'
p3779
sS'b2'
p3780
S'0.1.1.1'
p3781
sS'w'
S'0.1.0'
p3782
ssg11
(dp3783
I0
g13
sI1
S'if'
p3784
sI2
S'we'
p3785
sI3
S'recognize'
p3786
sI4
S'that'
p3787
sI5
S'road'
p3788
sI6
S'primarily'
p3789
sI7
S'benefit'
p3790
sI8
S'business'
p3791
sI9
S'then'
p3792
sI10
S'we'
p3793
sI11
S'should'
p3794
sI12
S'do'
p3795
sI13
S'two'
p3796
sI14
S'thing'
p3797
sI15
S':'
ssg23
(dp3798
(g3772
S'r'
tp3799
S':condition'
p3800
s(S'b'
S'p'
tp3801
S':mod'
p3802
s(S'b'
g3780
tp3803
S':ARG1'
p3804
s(g27
g3772
tp3805
g29
s(S'd'
S't'
tp3806
S':ARG1'
p3807
s(S'r'
S'w'
tp3808
S':ARG0'
p3809
s(S'd'
S'w'
tp3810
S':ARG0'
p3811
s(S'b'
g3773
tp3812
S':ARG0'
p3813
s(S't'
S'none0'
tp3814
S':quant'
p3815
s(g3772
S'd'
tp3816
S':ARG1'
p3817
s(S'r'
S'b'
tp3818
S':ARG1'
p3819
ssg40
(dp3820
I0
g13
sI1
VIf
p3821
sI2
Vwe
p3822
sI3
Vrecognize
p3823
sI4
Vthat
p3824
sI5
Vroads
p3825
sI6
Vprimarily
p3826
sI7
Vbenefit
p3827
sI8
Vbusinesses
p3828
sI9
Vthen
p3829
sI10
Vwe
p3830
sI11
Vshould
p3831
sI12
Vdo
p3832
sI13
Vtwo
p3833
sI14
Vthings
p3834
sI15
V:
ssg51
S'If we recognize that roads primarily benefit businesses then we should do two things :'
p3835
sg53
(dp3836
S'b'
(lp3837
S'0.1.1'
p3838
asS'd'
(lp3839
S'0.0'
p3840
asg3772
(lp3841
S'0'
asS'none0'
p3842
(lp3843
S'0.0.0.0'
p3844
asg3773
(lp3845
S'0.1.1.0'
p3846
asS'p'
(lp3847
S'0.1.1.2'
p3848
asS'r'
(lp3849
S'0.1'
p3850
asS't'
(lp3851
S'0.0.0'
p3852
asg3780
(lp3853
S'0.1.1.1'
p3854
asS'w'
(lp3855
S'0.1.0'
p3856
assg68
(dp3857
S'b'
S'benefit'
p3858
sS'd'
S'do'
p3859
sg3772
S'recommend'
p3860
sg3773
S'road'
p3861
sg27
g73
sg3775
S'2'
sS'p'
S'primary'
p3862
sS'r'
S'recognize'
p3863
sS't'
S'thing'
p3864
sg3780
S'business'
p3865
sS'w'
S'we'
p3866
ssg77
(dp3867
(I3
I15
tp3868
S':punct'
p3869
s(I3
I2
tp3870
S':nsubj'
p3871
s(I3
I12
tp3872
S':advcl'
p3873
s(I12
I14
tp3874
S':dobj'
p3875
s(I12
I9
tp3876
S':advmod'
p3877
s(I7
I6
tp3878
S':advmod'
p3879
s(I3
I1
tp3880
S':mark'
p3881
s(I14
I13
tp3882
S':nummod'
p3883
s(I7
I4
tp3884
S':mark'
p3885
s(I7
I5
tp3886
S':nsubj'
p3887
s(I12
I11
tp3888
S':aux'
p3889
s(I12
I10
tp3890
S':nsubj'
p3891
s(I3
I7
tp3892
S':ccomp'
p3893
s(I0
I3
tp3894
S':ROOT'
p3895
s(I7
I8
tp3896
S':dobj'
p3897
sssI37
(dp3898
g3
(dp3899
S'i'
S'0.0.0'
p3900
sS'h'
S'0'
sS'c'
S'0.1'
p3901
sS'u'
S'0.0'
p3902
sS'a'
S'0.1.0'
p3903
ssg11
(dp3904
I0
g13
sI1
S'why'
p3905
sI2
S'be'
p3906
sI3
S'it'
p3907
sI4
S'so'
p3908
sI5
S'hard'
p3909
sI6
S'to'
p3910
sI7
S'understand'
p3911
sI8
S'?'
ssg23
(dp3912
(S'h'
S'c'
tp3913
S':ARG1-of'
p3914
s(S'c'
S'a'
tp3915
S':ARG0'
p3916
s(g27
S'h'
tp3917
g29
s(S'h'
S'u'
tp3918
S':domain'
p3919
s(S'u'
S'i'
tp3920
S':ARG1'
p3921
ssg40
(dp3922
I0
g13
sI1
VWhy
p3923
sI2
Vis
p3924
sI3
Vit
p3925
sI4
Vso
p3926
sI5
Vhard
p3927
sI6
Vto
p3928
sI7
Vunderstand
p3929
sI8
V?
ssg51
S'Why is it so hard to understand ?'
p3930
sg53
(dp3931
S'i'
(lp3932
S'0.0.0'
p3933
asS'h'
(lp3934
S'0'
asS'c'
(lp3935
S'0.1'
p3936
asS'u'
(lp3937
S'0.0'
p3938
asS'a'
(lp3939
S'0.1.0'
p3940
assg68
(dp3941
S'a'
S'amr-unknown'
p3942
sS'c'
S'cause'
p3943
sS'i'
S'it'
p3944
sS'h'
S'hard'
p3945
sg27
g73
sS'u'
S'understand'
p3946
ssg77
(dp3947
(I7
I3
tp3948
S':nsubj'
p3949
s(I5
I4
tp3950
S':advmod'
p3951
s(I7
I1
tp3952
S':advmod'
p3953
s(I7
I6
tp3954
S':mark'
p3955
s(I0
I7
tp3956
S':ROOT'
p3957
s(I7
I5
tp3958
S':dep'
p3959
s(I7
I8
tp3960
S':punct'
p3961
s(I7
I2
tp3962
S':aux'
p3963
sssI38
(dp3964
g3
(dp3965
S'y'
S'0.0'
p3966
sS'd'
S'0.1'
p3967
sS'w'
S'0'
ssg11
(dp3968
I0
g13
sI1
S'you'
p3969
sI2
S'all'
p3970
sI3
S'be'
p3971
sI4
S'dead'
p3972
sI5
S'wrong'
p3973
sI6
S'.'
ssg23
(dp3974
(g27
S'w'
tp3975
g29
s(S'w'
S'y'
tp3976
S':ARG1'
p3977
s(S'w'
S'd'
tp3978
S':degree'
p3979
ssg40
(dp3980
I0
g13
sI1
VYou
p3981
sI2
Vall
p3982
sI3
Vare
p3983
sI4
Vdead
p3984
sI5
Vwrong
p3985
sI6
V.
ssg51
S'You all are dead wrong .'
p3986
sg53
(dp3987
S'y'
(lp3988
S'0.0'
p3989
asS'd'
(lp3990
S'0.1'
p3991
asS'w'
(lp3992
S'0'
assg68
(dp3993
S'y'
S"y'all"
p3994
sg27
g73
sS'd'
S'dead'
p3995
sS'w'
S'wrong'
p3996
ssg77
(dp3997
(I1
I2
tp3998
S':det'
p3999
s(I5
I4
tp4000
S':amod'
p4001
s(I5
I6
tp4002
S':punct'
p4003
s(I0
I5
tp4004
S':ROOT'
p4005
s(I5
I1
tp4006
S':nsubj'
p4007
s(I5
I3
tp4008
S':cop'
p4009
sssI39
(dp4010
g3
(dp4011
S'a'
S'0.0.0.0'
p4012
sS'c'
S'0.0.0'
p4013
sS's'
S'0.0.1.0'
p4014
sS'o'
S'0.0.1.0.0.0.0'
p4015
sS'a3'
p4016
S'0.0.1.0.0'
p4017
sS'r'
S'0.0'
p4018
sS'a4'
p4019
S'0.0.1.0.0.0'
p4020
sS'o2'
p4021
S'0'
sS'a2'
p4022
S'0.0.1'
p4023
ssg11
(dp4024
I0
g13
sI1
S'Audit'
p4025
sI2
S'cadre'
p4026
sI3
S'must'
p4027
sI4
S'require'
p4028
sI5
S'themselves'
p4029
sI6
S'to'
p4030
sI7
S'adhere'
p4031
sI8
S'to'
p4032
sI9
S'the'
p4033
sI10
S'standard'
p4034
sI11
S'they'
p4035
sI12
S'apply'
p4036
sI13
S'when'
p4037
sI14
S'auditing'
p4038
sI15
S'other'
p4039
sI16
S'.'
ssg23
(dp4040
(g4019
S'o'
tp4041
S':ARG1'
p4042
s(g4022
S's'
tp4043
S':ARG1'
p4044
s(S'r'
g4022
tp4045
S':ARG1'
p4046
s(g4021
S'r'
tp4047
S':ARG2'
p4048
s(g4016
S'c'
tp4049
S':ARG0'
p4050
s(g4019
S'c'
tp4051
S':ARG0'
p4052
s(g4022
S'c'
tp4053
S':ARG0'
p4054
s(S'c'
S'a'
tp4055
S':ARG0-of'
p4056
s(S'r'
S'c'
tp4057
S':ARG2'
p4058
s(S's'
g4016
tp4059
S':ARG1-of'
p4060
s(g4016
g4019
tp4061
S':ARG2'
p4062
s(g27
g4021
tp4063
g29
ssg40
(dp4064
I0
g13
sI1
VAudit
p4065
sI2
Vcadres
p4066
sI3
Vmust
p4067
sI4
Vrequire
p4068
sI5
Vthemselves
p4069
sI6
Vto
p4070
sI7
Vadhere
p4071
sI8
Vto
p4072
sI9
Vthe
p4073
sI10
Vstandards
p4074
sI11
Vthey
p4075
sI12
Vapply
p4076
sI13
Vwhen
p4077
sI14
Vauditing
p4078
sI15
Vothers
p4079
sI16
V.
ssg51
S'Audit cadres must require themselves to adhere to the standards they apply when auditing others .'
p4080
sg53
(dp4081
S'a'
(lp4082
S'0.0.0.0'
p4083
asS'c'
(lp4084
S'0.0.0'
p4085
asS's'
(lp4086
S'0.0.1.0'
p4087
asS'o'
(lp4088
S'0.0.1.0.0.0.0'
p4089
asg4016
(lp4090
S'0.0.1.0.0'
p4091
asS'r'
(lp4092
S'0.0'
p4093
asg4019
(lp4094
S'0.0.1.0.0.0'
p4095
asg4021
(lp4096
S'0'
asg4022
(lp4097
S'0.0.1'
p4098
assg68
(dp4099
S'a'
S'audit'
p4100
sS'c'
S'cadre'
p4101
sg27
g73
sS's'
S'standard'
p4102
sS'o'
S'other'
p4103
sg4016
S'apply'
p4104
sS'r'
S'require'
p4105
sg4019
S'audit'
p4106
sg4021
S'obligate'
p4107
sg4022
S'adhere'
p4108
ssg77
(dp4109
(I10
I8
tp4110
S':case'
p4111
s(I4
I7
tp4112
S':xcomp'
p4113
s(I7
I10
tp4114
S':nmod-to'
p4115
s(I4
I5
tp4116
S':dobj'
p4117
s(I7
I6
tp4118
S':mark'
p4119
s(I12
I11
tp4120
S':nsubj'
p4121
s(I10
I12
tp4122
S':acl-relcl'
p4123
s(I2
I1
tp4124
S':compound'
p4125
s(I4
I16
tp4126
S':punct'
p4127
s(I7
I5
tp4128
S':nsubj'
p4129
s(I14
I15
tp4130
S':dobj'
p4131
s(I14
I13
tp4132
S':advmod'
p4133
s(I4
I3
tp4134
S':aux'
p4135
s(I0
I4
tp4136
S':ROOT'
p4137
s(I4
I2
tp4138
S':nsubj'
p4139
s(I10
I9
tp4140
S':det'
p4141
s(I12
I14
tp4142
S':advcl'
p4143
sssI40
(dp4144
g3
(dp4145
S'a'
S'0.1'
p4146
sS'p2'
p4147
S'0.1.0'
p4148
sS'none0'
p4149
S'0.0'
p4150
sS'd'
S'0'
sS'p'
S'0.2'
p4151
ssg11
(dp4152
I0
g13
sI1
S'do'
p4153
sI2
S'prosecute'
p4154
sI3
S'authority'
p4155
sI4
S'dare'
p4156
sI5
S'to'
p4157
sI6
S'be'
p4158
sI7
S'prosecute'
p4159
sI8
S'?'
ssg23
(dp4160
(g27
S'd'
tp4161
g29
s(S'a'
g4147
tp4162
S':ARG0-of'
p4163
s(S'd'
S'p'
tp4164
S':ARG1'
p4165
s(S'p'
S'a'
tp4166
S':ARG1'
p4167
s(S'd'
S'none0'
tp4168
S':mode'
p4169
s(S'd'
S'a'
tp4170
S':ARG0'
p4171
ssg40
(dp4172
I0
g13
sI1
VDo
p4173
sI2
Vprosecuting
p4174
sI3
Vauthorities
p4175
sI4
Vdare
p4176
sI5
Vto
p4177
sI6
Vbe
p4178
sI7
Vprosecuted
p4179
sI8
V?
ssg51
S'Do prosecuting authorities dare to be prosecuted ?'
p4180
sg53
(dp4181
S'a'
(lp4182
S'0.1'
p4183
asg4147
(lp4184
S'0.1.0'
p4185
asS'd'
(lp4186
S'0'
asS'p'
(lp4187
S'0.2'
p4188
asS'none0'
p4189
(lp4190
S'0.0'
p4191
assg68
(dp4192
S'a'
S'authority'
p4193
sg4147
S'prosecute'
p4194
sS'd'
S'dare'
p4195
sg4149
S'interrogative'
p4196
sg27
g73
sS'p'
S'prosecute'
p4197
ssg77
(dp4198
(I0
I1
tp4199
S':ROOT'
p4200
s(I7
I3
tp4201
S':nsubjpass'
p4202
s(I3
I2
tp4203
S':amod'
p4204
s(I7
I6
tp4205
S':auxpass'
p4206
s(I4
I7
tp4207
S':xcomp'
p4208
s(I1
I4
tp4209
S':ccomp'
p4210
s(I1
I8
tp4211
S':punct'
p4212
s(I7
I5
tp4213
S':mark'
p4214
s(I4
I3
tp4215
S':nsubj'
p4216
sssI41
(dp4217
g3
(dp4218
S'a'
S'0.1.0'
p4219
sS'g'
S'0.1.0.0.0'
p4220
sS'r2'
p4221
S'0.1.0.1.1'
p4222
sS'h'
S'0.0'
p4223
sS'm'
S'0'
sS'n'
S'0.1.0.1'
p4224
sS'p'
S'0.2'
p4225
sS's'
S'0.1.0.0'
p4226
sS'r'
S'0.1'
p4227
sS't'
S'0.1.0.1.0'
p4228
ssg11
(dp4229
I0
g13
sI1
S'he'
p4230
sI2
S'make'
p4231
sI3
S'people'
p4232
sI4
S'realize'
p4233
sI5
S'the'
p4234
sI6
S'strength'
p4235
sI7
S'of'
p4236
sI8
S'gratitude'
p4237
sI9
S'and'
p4238
sI10
S'touching'
p4239
sI11
S'nature'
p4240
sI12
S'of'
p4241
sI13
S'reciprocation'
p4242
sI14
S'.'
ssg23
(dp4243
(S'n'
S't'
tp4244
S':mod'
p4245
s(S'a'
S'n'
tp4246
S':op2'
p4247
s(S'r'
S'p'
tp4248
S':ARG0'
p4249
s(S'a'
S's'
tp4250
S':op1'
p4251
s(S'm'
S'r'
tp4252
S':ARG1'
p4253
s(g27
S'm'
tp4254
g29
s(S'n'
g4221
tp4255
S':mod'
p4256
s(S's'
S'g'
tp4257
S':mod'
p4258
s(S'm'
S'p'
tp4259
S':beneficiary'
p4260
s(S'r'
S'a'
tp4261
S':ARG1'
p4262
s(S'm'
S'h'
tp4263
S':ARG0'
p4264
ssg40
(dp4265
I0
g13
sI1
VHe
p4266
sI2
Vmade
p4267
sI3
Vpeople
p4268
sI4
Vrealize
p4269
sI5
Vthe
p4270
sI6
Vstrength
p4271
sI7
Vof
p4272
sI8
Vgratitude
p4273
sI9
Vand
p4274
sI10
Vtouching
p4275
sI11
Vnature
p4276
sI12
Vof
p4277
sI13
Vreciprocation
p4278
sI14
V.
ssg51
S'He made people realize the strength of gratitude and touching nature of reciprocation .'
p4279
sg53
(dp4280
S'a'
(lp4281
S'0.1.0'
p4282
asS'g'
(lp4283
S'0.1.0.0.0'
p4284
asg4221
(lp4285
S'0.1.0.1.1'
p4286
asS'h'
(lp4287
S'0.0'
p4288
asS'm'
(lp4289
S'0'
asS'n'
(lp4290
S'0.1.0.1'
p4291
asS'p'
(lp4292
S'0.2'
p4293
asS's'
(lp4294
S'0.1.0.0'
p4295
asS'r'
(lp4296
S'0.1'
p4297
asS't'
(lp4298
S'0.1.0.1.0'
p4299
assg68
(dp4300
S'a'
S'and'
p4301
sS'g'
S'gratitude'
p4302
sg4221
S'reciprocate'
p4303
sS'h'
S'he'
p4304
sg27
g73
sS'm'
S'make'
p4305
sS'n'
S'nature'
p4306
sS'p'
S'person'
p4307
sS's'
S'strength'
p4308
sS'r'
S'realize'
p4309
sS't'
S'touch'
p4310
ssg77
(dp4311
(I6
I9
tp4312
S':cc'
p4313
s(I2
I14
tp4314
S':punct'
p4315
s(I8
I7
tp4316
S':case'
p4317
s(I4
I6
tp4318
S':dobj'
p4319
s(I6
I11
tp4320
S':conj-and'
p4321
s(I13
I12
tp4322
S':case'
p4323
s(I11
I10
tp4324
S':amod'
p4325
s(I2
I1
tp4326
S':nsubj'
p4327
s(I2
I4
tp4328
S':ccomp'
p4329
s(I4
I3
tp4330
S':nsubj'
p4331
s(I11
I13
tp4332
S':nmod-of'
p4333
s(I0
I2
tp4334
S':ROOT'
p4335
s(I6
I5
tp4336
S':det'
p4337
s(I6
I8
tp4338
S':nmod-of'
p4339
sssI42
(dp4340
g3
(dp4341
S'a'
S'0.1'
p4342
sS'c'
S'0.1.0'
p4343
sS'e'
S'0'
sS'f'
S'0.2'
p4344
sS'i'
S'0.1.0.0'
p4345
sS'h'
S'0.0'
p4346
sS'j'
S'0.3'
p4347
sS'a2'
p4348
S'0.1.0.1'
p4349
sS't'
S'0.2.0'
p4350
ssg11
(dp4351
I0
g13
sI1
S'he'
p4352
sI2
S'just'
p4353
sI3
S'email'
p4354
sI4
S'that'
p4355
sI5
S'friend'
p4356
sI6
S'to'
p4357
sI7
S'ask'
p4358
sI8
S'he'
p4359
sI9
S'how'
p4360
sI10
S'much'
p4361
sI11
S'it'
p4362
sI12
S'cost'
p4363
sI13
S'.'
ssg23
(dp4364
(S'e'
S'f'
tp4365
S':ARG2'
p4366
s(S'f'
S't'
tp4367
S':mod'
p4368
s(S'c'
g4348
tp4369
S':ARG2'
p4370
s(g27
S'e'
tp4371
g29
s(S'c'
S'i'
tp4372
S':ARG1'
p4373
s(S'a'
S'f'
tp4374
S':ARG2'
p4375
s(S'a'
S'h'
tp4376
S':ARG0'
p4377
s(S'e'
S'h'
tp4378
S':ARG0'
p4379
s(S'a'
S'c'
tp4380
S':ARG1'
p4381
s(S'e'
S'j'
tp4382
S':time'
p4383
s(S'e'
S'a'
tp4384
S':ARG1'
p4385
ssg40
(dp4386
I0
g13
sI1
VHe
p4387
sI2
Vjust
p4388
sI3
Vemailed
p4389
sI4
Vthat
p4390
sI5
Vfriend
p4391
sI6
Vto
p4392
sI7
Vask
p4393
sI8
Vhim
p4394
sI9
Vhow
p4395
sI10
Vmuch
p4396
sI11
Vit
p4397
sI12
Vcost
p4398
sI13
V.
ssg51
S'He just emailed that friend to ask him how much it cost .'
p4399
sg53
(dp4400
S'a'
(lp4401
S'0.1'
p4402
asS'c'
(lp4403
S'0.1.0'
p4404
asS'e'
(lp4405
S'0'
asS'f'
(lp4406
S'0.2'
p4407
asS'i'
(lp4408
S'0.1.0.0'
p4409
asS'h'
(lp4410
S'0.0'
p4411
asS'j'
(lp4412
S'0.3'
p4413
asg4348
(lp4414
S'0.1.0.1'
p4415
asS't'
(lp4416
S'0.2.0'
p4417
assg68
(dp4418
S'a'
S'ask'
p4419
sS'c'
S'cost'
p4420
sS'e'
S'email'
p4421
sS'f'
S'friend'
p4422
sS'i'
S'it'
p4423
sS'h'
S'he'
p4424
sg27
g73
sS'j'
S'just'
p4425
sg4348
S'amr-unknown'
p4426
sS't'
S'that'
p4427
ssg77
(dp4428
(I5
I4
tp4429
S':det'
p4430
s(I3
I13
tp4431
S':punct'
p4432
s(I7
I12
tp4433
S':ccomp'
p4434
s(I7
I6
tp4435
S':mark'
p4436
s(I3
I1
tp4437
S':nsubj'
p4438
s(I3
I2
tp4439
S':advmod'
p4440
s(I12
I11
tp4441
S':nsubj'
p4442
s(I12
I10
tp4443
S':advmod'
p4444
s(I3
I7
tp4445
S':xcomp'
p4446
s(I0
I3
tp4447
S':ROOT'
p4448
s(I7
I8
tp4449
S':dobj'
p4450
s(I10
I9
tp4451
S':advmod'
p4452
s(I3
I5
tp4453
S':dobj'
p4454
sssI43
(dp4455
g3
(dp4456
S'a'
S'0'
sS'c'
S'0.0.0.0'
p4457
sS'e'
S'0.3.0.0'
p4458
sS'g'
S'0.0'
p4459
sS'none0'
p4460
S'0.0.0.0.0.0'
p4461
sS'n'
S'0.0.0.0.0'
p4462
sS'p'
S'0.0.0'
p4463
sS'r'
S'0.3'
p4464
sS'w2'
p4465
S'0.3.0'
p4466
sS'w'
S'0.1'
p4467
sS'c2'
p4468
S'0.2'
p4469
ssg11
(dp4470
I0
g13
sI1
S'currently'
p4471
sI2
S'a'
sI3
S'group'
p4472
sI4
S'of'
p4473
sI5
S'australian'
p4474
sI6
S'physicist'
p4475
sI7
S'be'
p4476
sI8
S'accelerate'
p4477
sI9
S'they'
p4478
sI10
S'work'
p4479
sI11
S'to'
p4480
sI12
S'realize'
p4481
sI13
S'everybody'
p4482
sI14
S"'s"
p4483
sI15
S'wish'
p4484
sI16
S'.'
ssg23
(dp4485
(S'a'
S'w'
tp4486
S':ARG1'
p4487
s(S'a'
g4468
tp4488
S':time'
p4489
s(S'w'
S'p'
tp4490
S':ARG0'
p4491
s(S'r'
S'p'
tp4492
S':ARG0'
p4493
s(S'p'
S'c'
tp4494
S':mod'
p4495
s(S'a'
S'g'
tp4496
S':ARG0'
p4497
s(g4465
S'e'
tp4498
S':ARG0'
p4499
s(S'n'
S'none0'
tp4500
S':op1'
p4501
s(S'c'
S'n'
tp4502
S':name'
p4503
s(g27
S'a'
tp4504
g29
s(S'g'
S'p'
tp4505
S':ARG1'
p4506
s(S'a'
S'r'
tp4507
S':purpose'
p4508
s(S'r'
g4465
tp4509
S':ARG1'
p4510
ssg40
(dp4511
I0
g13
sI1
VCurrently
p4512
sI2
Va
sI3
Vgroup
p4513
sI4
Vof
p4514
sI5
VAustralian
p4515
sI6
Vphysicists
p4516
sI7
Vare
p4517
sI8
Vaccelerating
p4518
sI9
Vtheir
p4519
sI10
Vwork
p4520
sI11
Vto
p4521
sI12
Vrealize
p4522
sI13
Veverybody
p4523
sI14
V's
p4524
sI15
Vwish
p4525
sI16
V.
ssg51
S"Currently a group of Australian physicists are accelerating their work to realize everybody 's wish ."
p4526
sg53
(dp4527
S'a'
(lp4528
S'0'
asS'c'
(lp4529
S'0.0.0.0'
p4530
asS'e'
(lp4531
S'0.3.0.0'
p4532
asS'g'
(lp4533
S'0.0'
p4534
asS'none0'
p4535
(lp4536
S'0.0.0.0.0.0'
p4537
asS'n'
(lp4538
S'0.0.0.0.0'
p4539
asS'p'
(lp4540
S'0.0.0'
p4541
asS'r'
(lp4542
S'0.3'
p4543
asg4465
(lp4544
S'0.3.0'
p4545
asS'w'
(lp4546
S'0.1'
p4547
asg4468
(lp4548
S'0.2'
p4549
assg68
(dp4550
S'a'
S'accelerate'
p4551
sS'c'
S'country'
p4552
sS'e'
S'everybody'
p4553
sS'g'
S'group'
p4554
sg4460
S'Australia'
p4555
sg27
g73
sS'n'
S'name'
p4556
sS'p'
S'physicist'
p4557
sS'r'
S'realize'
p4558
sg4465
S'wish'
p4559
sS'w'
S'work'
p4560
sg4468
S'current'
p4561
ssg77
(dp4562
(I6
I4
tp4563
S':case'
p4564
s(I3
I2
tp4565
S':det'
p4566
s(I15
I13
tp4567
S':nmod-poss'
p4568
s(I8
I7
tp4569
S':aux'
p4570
s(I12
I15
tp4571
S':dobj'
p4572
s(I8
I12
tp4573
S':advcl'
p4574
s(I8
I1
tp4575
S':advmod'
p4576
s(I8
I16
tp4577
S':punct'
p4578
s(I12
I11
tp4579
S':mark'
p4580
s(I8
I3
tp4581
S':nsubj'
p4582
s(I8
I10
tp4583
S':dobj'
p4584
s(I13
I14
tp4585
S':case'
p4586
s(I10
I9
tp4587
S':nmod-poss'
p4588
s(I3
I6
tp4589
S':nmod-of'
p4590
s(I0
I8
tp4591
S':ROOT'
p4592
s(I6
I5
tp4593
S':amod'
p4594
sssI44
(dp4595
g3
(dp4596
S'c'
S'0.1'
p4597
sS'd'
S'0.1.0.0'
p4598
sS'none1'
p4599
S'0.1.0.0.0'
p4600
sS'none0'
p4601
S'0.0'
p4602
sS's2'
p4603
S'0.1.0'
p4604
sS't2'
p4605
S'0.1.1.0.1'
p4606
sS'p'
S'0'
sS's'
S'0.1.1.0.0'
p4607
sS't'
S'0.1.1.0'
p4608
sS'c2'
p4609
S'0.1.1'
p4610
ssg11
(dp4611
I0
g13
sI1
S'it'
p4612
sI2
S'be'
p4613
sI3
S'not'
p4614
sI4
S'possible'
p4615
sI5
S'to'
p4616
sI6
S'confirm'
p4617
sI7
S'the'
p4618
sI8
S'credibility'
p4619
sI9
S'of'
p4620
sI10
S'this'
p4621
sI11
S'statement'
p4622
sI12
S'from'
p4623
sI13
S'a'
sI14
S'independent'
p4624
sI15
S'source'
p4625
sI16
S'.'
ssg23
(dp4626
(g27
S'p'
tp4627
g29
s(S'c'
g4603
tp4628
S':ARG0'
p4629
s(S'p'
S'none0'
tp4630
S':polarity'
p4631
s(S'd'
S'none1'
tp4632
S':polarity'
p4633
s(S'p'
S'c'
tp4634
S':domain'
p4635
s(S'c'
g4609
tp4636
S':ARG1'
p4637
s(g4609
S't'
tp4638
S':domain'
p4639
s(g4603
S'd'
tp4640
S':ARG0-of'
p4641
s(S't'
g4605
tp4642
S':mod'
p4643
s(S't'
S's'
tp4644
S':ARG1-of'
p4645
ssg40
(dp4646
I0
g13
sI1
VIt
p4647
sI2
Vwas
p4648
sI3
Vnot
p4649
sI4
Vpossible
p4650
sI5
Vto
p4651
sI6
Vconfirm
p4652
sI7
Vthe
p4653
sI8
Vcredibility
p4654
sI9
Vof
p4655
sI10
Vthis
p4656
sI11
Vstatement
p4657
sI12
Vfrom
p4658
sI13
Van
p4659
sI14
Vindependent
p4660
sI15
Vsource
p4661
sI16
V.
ssg51
S'It was not possible to confirm the credibility of this statement from an independent source .'
p4662
sg53
(dp4663
S'c'
(lp4664
S'0.1'
p4665
asS'd'
(lp4666
S'0.1.0.0'
p4667
asS'none1'
p4668
(lp4669
S'0.1.0.0.0'
p4670
asS'none0'
p4671
(lp4672
S'0.0'
p4673
asg4603
(lp4674
S'0.1.0'
p4675
asg4605
(lp4676
S'0.1.1.0.1'
p4677
asS'p'
(lp4678
S'0'
asS's'
(lp4679
S'0.1.1.0.0'
p4680
asS't'
(lp4681
S'0.1.1.0'
p4682
asg4609
(lp4683
S'0.1.1'
p4684
assg68
(dp4685
S'c'
S'confirm'
p4686
sS'd'
S'depend'
p4687
sg4599
S'-'
sg4601
S'-'
sg4603
S'source'
p4688
sg27
g73
sg4605
S'this'
p4689
sS'p'
S'possible'
p4690
sS's'
S'state'
p4691
sS't'
S'thing'
p4692
sg4609
S'credibility'
p4693
ssg77
(dp4694
(I15
I12
tp4695
S':case'
p4696
s(I11
I10
tp4697
S':det'
p4698
s(I15
I13
tp4699
S':det'
p4700
s(I8
I7
tp4701
S':det'
p4702
s(I4
I6
tp4703
S':xcomp'
p4704
s(I6
I15
tp4705
S':nmod-from'
p4706
s(I8
I11
tp4707
S':nmod-of'
p4708
s(I11
I9
tp4709
S':case'
p4710
s(I4
I16
tp4711
S':punct'
p4712
s(I4
I3
tp4713
S':neg'
p4714
s(I0
I4
tp4715
S':ROOT'
p4716
s(I4
I2
tp4717
S':cop'
p4718
s(I15
I14
tp4719
S':amod'
p4720
s(I4
I1
tp4721
S':nsubj'
p4722
s(I6
I5
tp4723
S':mark'
p4724
s(I6
I8
tp4725
S':dobj'
p4726
sssI45
(dp4727
g3
(dp4728
S'none0'
p4729
S'0.0'
p4730
sS's2'
p4731
S'0.4.0'
p4732
sS't2'
p4733
S'0.2'
p4734
sS's'
S'0.3'
p4735
sS't'
S'0.1'
p4736
sS'w'
S'0.4'
p4737
sS'h'
S'0'
sS'w2'
p4738
S'0.4.0.0'
p4739
ssg11
(dp4740
I0
g13
sI1
S'do'
p4741
sI2
S'they'
p4742
sI3
S'still'
p4743
sI4
S'have'
p4744
sI5
S'time'
p4745
sI6
S'to'
p4746
sI7
S'wait'
p4747
sI8
S'for'
p4748
sI9
S'we'
p4749
sI10
S'to'
p4750
sI11
S'succeed'
p4751
sI12
S'?'
ssg23
(dp4752
(S'h'
S't'
tp4753
S':ARG0'
p4754
s(S'h'
S'w'
tp4755
S':purpose'
p4756
s(g27
S'h'
tp4757
g29
s(S'w'
g4731
tp4758
S':ARG2'
p4759
s(S'h'
g4733
tp4760
S':ARG1'
p4761
s(g4731
g4738
tp4762
S':ARG0'
p4763
s(S'h'
S's'
tp4764
S':mod'
p4765
s(S'w'
S't'
tp4766
S':ARG1'
p4767
s(S'h'
S'none0'
tp4768
S':mode'
p4769
ssg40
(dp4770
I0
g13
sI1
VDo
p4771
sI2
Vthey
p4772
sI3
Vstill
p4773
sI4
Vhave
p4774
sI5
Vtime
p4775
sI6
Vto
p4776
sI7
Vwait
p4777
sI8
Vfor
p4778
sI9
Vus
p4779
sI10
Vto
p4780
sI11
Vsucceed
p4781
sI12
V?
ssg51
S'Do they still have time to wait for us to succeed ?'
p4782
sg53
(dp4783
S'none0'
p4784
(lp4785
S'0.0'
p4786
asg4731
(lp4787
S'0.4.0'
p4788
asg4733
(lp4789
S'0.2'
p4790
asS's'
(lp4791
S'0.3'
p4792
asS't'
(lp4793
S'0.1'
p4794
asS'w'
(lp4795
S'0.4'
p4796
asS'h'
(lp4797
S'0'
asg4738
(lp4798
S'0.4.0.0'
p4799
assg68
(dp4800
g4729
S'interrogative'
p4801
sg4731
S'succeed'
p4802
sg27
g73
sg4733
S'time'
p4803
sS's'
S'still'
p4804
sS't'
S'they'
p4805
sS'w'
S'wait'
p4806
sS'h'
S'have'
p4807
sg4738
S'we'
p4808
ssg77
(dp4809
(I0
I1
tp4810
S':ROOT'
p4811
s(I11
I10
tp4812
S':mark'
p4813
s(I11
I9
tp4814
S':nsubj'
p4815
s(I1
I12
tp4816
S':punct'
p4817
s(I4
I5
tp4818
S':dobj'
p4819
s(I7
I6
tp4820
S':mark'
p4821
s(I5
I7
tp4822
S':acl'
p4823
s(I1
I4
tp4824
S':ccomp'
p4825
s(I11
I8
tp4826
S':mark'
p4827
s(I4
I3
tp4828
S':advmod'
p4829
s(I7
I11
tp4830
S':advcl'
p4831
s(I4
I2
tp4832
S':nsubj'
p4833
sssI46
(dp4834
g3
(dp4835
S'a'
S'0'
sS'c'
S'0.1'
p4836
sS'i'
S'0.0.0'
p4837
sS'h'
S'0.0'
p4838
sS'o'
S'0.0.1.1'
p4839
sS's'
S'0.0.1.0'
p4840
sS'a2'
p4841
S'0.0.2'
p4842
sS't'
S'0.0.1.2'
p4843
sS'c2'
p4844
S'0.0.1'
p4845
ssg11
(dp4846
I0
g13
sI1
S'I'
sI2
S'actually'
p4847
sI3
S'have'
p4848
sI4
S'some'
p4849
sI5
S'other'
p4850
sI6
S'classmate'
p4851
sI7
S'there'
p4852
sI8
S','
sI9
S'and'
p4853
sI10
S'be'
p4854
sI11
S'go'
p4855
sI12
S'to'
p4856
sI13
S'call'
p4857
sI14
S'they'
p4858
sI15
S'.'
ssg23
(dp4859
(g4844
S's'
tp4860
S':quant'
p4861
s(S'c'
S'i'
tp4862
S':ARG0'
p4863
s(S'h'
S'i'
tp4864
S':ARG0'
p4865
s(S'a'
S'c'
tp4866
S':op2'
p4867
s(g4844
S'o'
tp4868
S':mod'
p4869
s(S'c'
S'c2'
tp4870
S':ARG1'
p4871
s(g27
S'a'
tp4872
g29
s(S'a'
S'h'
tp4873
S':op1'
p4874
s(g4844
S't'
tp4875
S':location'
p4876
s(S'h'
g4841
tp4877
S':mod'
p4878
s(S'h'
g4844
tp4879
S':ARG1'
p4880
ssg40
(dp4881
I0
g13
sI1
VI
sI2
Vactually
p4882
sI3
Vhad
p4883
sI4
Vsome
p4884
sI5
Vother
p4885
sI6
Vclassmates
p4886
sI7
Vthere
p4887
sI8
V,
sI9
Vand
p4888
sI10
Vwas
p4889
sI11
Vgoing
p4890
sI12
Vto
p4891
sI13
Vcall
p4892
sI14
Vthem
p4893
sI15
V.
ssg51
S'I actually had some other classmates there, and was going to call them.'
p4894
sg53
(dp4895
S'a'
(lp4896
S'0'
asS'c'
(lp4897
S'0.1'
p4898
asS'i'
(lp4899
S'0.0.0'
p4900
asS'h'
(lp4901
S'0.0'
p4902
asS'o'
(lp4903
S'0.0.1.1'
p4904
asS's'
(lp4905
S'0.0.1.0'
p4906
asg4841
(lp4907
S'0.0.2'
p4908
asS't'
(lp4909
S'0.0.1.2'
p4910
asg4844
(lp4911
S'0.0.1'
p4912
assg68
(dp4913
S'a'
S'and'
p4914
sS'c'
S'call'
p4915
sS'i'
S'i'
sS'h'
S'have'
p4916
sg27
g73
sS'o'
S'other'
p4917
sS's'
S'some'
p4918
sg4841
S'actual'
p4919
sS't'
S'there'
p4920
sg4844
S'classmate'
p4921
ssg77
(dp4922
(I3
I9
tp4923
S':cc'
p4924
s(I13
I1
tp4925
S':nsubj'
p4926
s(I3
I2
tp4927
S':advmod'
p4928
s(I6
I4
tp4929
S':det'
p4930
s(I13
I14
tp4931
S':dobj'
p4932
s(I3
I1
tp4933
S':nsubj'
p4934
s(I11
I10
tp4935
S':aux'
p4936
s(I3
I11
tp4937
S':conj-and'
p4938
s(I3
I8
tp4939
S':punct'
p4940
s(I11
I1
tp4941
S':nsubj'
p4942
s(I3
I6
tp4943
S':dobj'
p4944
s(I13
I12
tp4945
S':mark'
p4946
s(I3
I7
tp4947
S':advmod'
p4948
s(I0
I3
tp4949
S':ROOT'
p4950
s(I3
I15
tp4951
S':punct'
p4952
s(I6
I5
tp4953
S':amod'
p4954
s(I11
I13
tp4955
S':xcomp'
p4956
sssI47
(dp4957
g3
(dp4958
S'a'
S'0'
sS'c'
S'0.1'
p4959
sS'none1'
p4960
S'0.1.0.1.0.0.0'
p4961
sS'none0'
p4962
S'0.1.0.0.0'
p4963
sS'i'
S'0.0.0'
p4964
sS'i2'
p4965
S'0.1.0.1'
p4966
sS'm'
S'0.1.0.1.0.0'
p4967
sS'l'
S'0.0'
p4968
sS'o'
S'0.1.0.0'
p4969
sS'p'
S'0.1.1'
p4970
sS'r'
S'0.0.1'
p4971
sS'c3'
p4972
S'0.1.0'
p4973
sS'c2'
p4974
S'0.0.1.0'
p4975
sS'd3'
p4976
S'0.1.0.1.0.1'
p4977
sS'c4'
p4978
S'0.1.0.1.0'
p4979
ssg11
(dp4980
I0
g13
sI1
S'I'
sI2
S'have'
p4981
sI3
S'a'
sI4
S'look'
p4982
sI5
S'at'
p4983
sI6
S'my'
p4984
sI7
S'call'
p4985
sI8
S'register'
p4986
sI9
S','
sI10
S'and'
p4987
sI11
S'out'
p4988
sI12
S'of'
p4989
sI13
S'dozen'
p4990
sI14
S'of'
p4991
sI15
S'call'
p4992
sI16
S'dial'
p4993
sI17
S'only'
p4994
sI18
S'one'
p4995
sI19
S'be'
p4996
sI20
S'properly'
p4997
sI21
S'connect'
p4998
sI22
S'!'
ssg23
(dp4999
(g4972
g4965
tp5000
S':ARG1-of'
p5001
s(g4978
g4976
tp5002
S':ARG1-of'
p5003
s(g27
S'a'
tp5004
g29
s(S'o'
S'none0'
tp5005
S':op1'
p5006
s(S'a'
S'l'
tp5007
S':op1'
p5008
s(g4965
g4978
tp5009
S':ARG2'
p5010
s(S'm'
S'none1'
tp5011
S':op1'
p5012
s(g4978
S'm'
tp5013
S':quant'
p5014
s(g4972
S'o'
tp5015
S':quant'
p5016
s(S'r'
g4974
tp5017
S':ARG1'
p5018
s(S'l'
S'i'
tp5019
S':ARG0'
p5020
s(S'l'
S'r'
tp5021
S':ARG1'
p5022
s(S'c'
g4972
tp5023
S':ARG1'
p5024
s(g4974
S'i'
tp5025
S':ARG0'
p5026
s(S'a'
S'c'
tp5027
S':op2'
p5028
s(S'c'
S'p'
tp5029
S':manner'
p5030
ssg40
(dp5031
I0
g13
sI1
VI
sI2
Vhad
p5032
sI3
Va
sI4
Vlook
p5033
sI5
Vat
p5034
sI6
Vmy
p5035
sI7
Vcall
p5036
sI8
Vregister
p5037
sI9
V,
sI10
Vand
p5038
sI11
Vout
p5039
sI12
Vof
p5040
sI13
Vdozens
p5041
sI14
Vof
p5042
sI15
Vcalls
p5043
sI16
Vdialed
p5044
sI17
Vonly
p5045
sI18
Vone
p5046
sI19
Vwas
p5047
sI20
Vproperly
p5048
sI21
Vconnected
p5049
sI22
V!
ssg51
S'I had a look at my call register, and out of dozens of calls dialed only one was properly connected!'
p5050
sg53
(dp5051
S'a'
(lp5052
S'0'
asS'c'
(lp5053
S'0.1'
p5054
asS'none1'
p5055
(lp5056
S'0.1.0.1.0.0.0'
p5057
asS'none0'
p5058
(lp5059
S'0.1.0.0.0'
p5060
asS'i'
(lp5061
S'0.0.0'
p5062
asg4965
(lp5063
S'0.1.0.1'
p5064
asS'm'
(lp5065
S'0.1.0.1.0.0'
p5066
asS'l'
(lp5067
S'0.0'
p5068
asS'o'
(lp5069
S'0.1.0.0'
p5070
asS'p'
(lp5071
S'0.1.1'
p5072
asS'r'
(lp5073
S'0.0.1'
p5074
asg4972
(lp5075
S'0.1.0'
p5076
asg4974
(lp5077
S'0.0.1.0'
p5078
asg4976
(lp5079
S'0.1.0.1.0.1'
p5080
asg4978
(lp5081
S'0.1.0.1.0'
p5082
assg68
(dp5083
S'a'
S'and'
p5084
sS'c'
S'connect'
p5085
sg4960
S'12'
p5086
sg4962
S'1'
sS'i'
S'i'
sg27
g73
sg4965
S'include'
p5087
sS'm'
S'multiple'
p5088
sS'l'
S'look'
p5089
sS'o'
S'only'
p5090
sS'p'
S'proper'
p5091
sS'r'
S'register'
p5092
sg4972
S'call'
p5093
sg4974
S'call'
p5094
sg4976
S'dial'
p5095
sg4978
S'call'
p5096
ssg77
(dp5097
(I4
I8
tp5098
S':nmod-at'
p5099
s(I2
I1
tp5100
S':nsubj'
p5101
s(I2
I22
tp5102
S':punct'
p5103
s(I8
I5
tp5104
S':case'
p5105
s(I21
I20
tp5106
S':advmod'
p5107
s(I2
I9
tp5108
S':punct'
p5109
s(I21
I18
tp5110
S':nsubjpass'
p5111
s(I2
I13
tp5112
S':conj-and'
p5113
s(I8
I6
tp5114
S':nmod-poss'
p5115
s(I21
I19
tp5116
S':auxpass'
p5117
s(I13
I15
tp5118
S':nmod-of'
p5119
s(I18
I17
tp5120
S':advmod'
p5121
s(I2
I10
tp5122
S':cc'
p5123
s(I8
I7
tp5124
S':compound'
p5125
s(I15
I14
tp5126
S':case'
p5127
s(I11
I12
tp5128
S':mwe'
p5129
s(I15
I21
tp5130
S':acl'
p5131
s(I0
I2
tp5132
S':ROOT'
p5133
s(I4
I3
tp5134
S':det'
p5135
s(I13
I11
tp5136
S':case'
p5137
s(I15
I16
tp5138
S':amod'
p5139
s(I2
I4
tp5140
S':dobj'
p5141
sssI48
(dp5142
g3
(dp5143
S'a'
S'0.0.0'
p5144
sS'e'
S'0.1.0.0'
p5145
sS'd'
S'0.1'
p5146
sS'none1'
p5147
S'0.1.0.0.0.1'
p5148
sS'none0'
p5149
S'0.1.0.0.0.0'
p5150
sS'n'
S'0.1.0.0.0'
p5151
sS's'
S'0'
sS'w2'
p5152
S'0.1.0'
p5153
sS'w'
S'0.0'
p5154
ssg11
(dp5155
I0
g13
sI1
S'we'
p5156
sI2
S'all'
p5157
sI3
S'see'
p5158
sI4
S'the'
p5159
sI5
S'damage'
p5160
sI6
S'wreak'
p5161
sI7
S'by'
p5162
sI8
S'the'
p5163
sI9
S'Wenchuan'
p5164
sI10
S'earthquake'
p5165
sI11
S'.'
ssg23
(dp5166
(S'n'
S'none0'
tp5167
S':op1'
p5168
s(S'd'
S'e'
tp5169
S':ARG0'
p5170
s(S's'
S'w'
tp5171
S':ARG0'
p5172
s(S's'
S'd'
tp5173
S':ARG1'
p5174
s(S'n'
S'none1'
tp5175
S':op2'
p5176
s(g27
S's'
tp5177
g29
s(g5152
S'e'
tp5178
S':ARG0'
p5179
s(S'd'
g5152
tp5180
S':ARG1-of'
p5181
s(S'w'
S'a'
tp5182
S':quant'
p5183
s(S'e'
S'n'
tp5184
S':name'
p5185
ssg40
(dp5186
I0
g13
sI1
VWe
p5187
sI2
Vall
p5188
sI3
Vsaw
p5189
sI4
Vthe
p5190
sI5
Vdamage
p5191
sI6
Vwreaked
p5192
sI7
Vby
p5193
sI8
Vthe
p5194
sI9
VWenchuan
p5195
sI10
VEarthquake
p5196
sI11
V.
ssg51
S'We all saw the damage wreaked by the Wenchuan Earthquake.'
p5197
sg53
(dp5198
S'a'
(lp5199
S'0.0.0'
p5200
asS'e'
(lp5201
S'0.1.0.0'
p5202
asS'd'
(lp5203
S'0.1'
p5204
asS'none1'
p5205
(lp5206
S'0.1.0.0.0.1'
p5207
asS'none0'
p5208
(lp5209
S'0.1.0.0.0.0'
p5210
asS'n'
(lp5211
S'0.1.0.0.0'
p5212
asS's'
(lp5213
S'0'
asg5152
(lp5214
S'0.1.0'
p5215
asS'w'
(lp5216
S'0.0'
p5217
assg68
(dp5218
S'a'
S'all'
p5219
sS'e'
S'earthquake'
p5220
sS'd'
S'damage'
p5221
sg5147
S'Earthquake'
p5222
sg5149
S'Wenchuan'
p5223
sg27
g73
sS'n'
S'name'
p5224
sS's'
S'see'
p5225
sg5152
S'wreak'
p5226
sS'w'
S'we'
p5227
ssg77
(dp5228
(I10
I8
tp5229
S':det'
p5230
s(I5
I4
tp5231
S':det'
p5232
s(I6
I10
tp5233
S':nmod-by'
p5234
s(I5
I6
tp5235
S':acl'
p5236
s(I3
I1
tp5237
S':nsubj'
p5238
s(I3
I2
tp5239
S':nsubj'
p5240
s(I3
I11
tp5241
S':punct'
p5242
s(I10
I7
tp5243
S':case'
p5244
s(I0
I3
tp5245
S':ROOT'
p5246
s(I10
I9
tp5247
S':compound'
p5248
s(I3
I5
tp5249
S':dobj'
p5250
sssI49
(dp5251
g3
(dp5252
S'a'
S'0.0.1.0.0.0'
p5253
sS'p2'
p5254
S'0.1.0.0'
p5255
sS'b'
S'0'
sS'r2'
p5256
S'0.0.1'
p5257
sS't4'
p5258
S'0.0.1.0'
p5259
sS't2'
p5260
S'0.0'
p5261
sS'l'
S'0.0.0'
p5262
sS'p'
S'0.0.0.0'
p5263
sS's'
S'0.1'
p5264
sS'r'
S'0.2'
p5265
sS'l2'
p5266
S'0.0.1.0.0'
p5267
sS'e4'
p5268
S'0.1.0'
p5269
ssg11
(dp5270
I0
g13
sI1
S'once'
p5271
sI2
S'a'
sI3
S'powerful'
p5272
sI4
S'earthquake'
p5273
sI5
S'strike'
p5274
sI6
S','
sI7
S'the'
p5275
sI8
S'people'
p5276
sI9
S"'s"
p5277
sI10
S'life'
p5278
sI11
S'really'
p5279
sI12
S'do'
p5280
sI13
S'become'
p5281
sI14
S'as'
p5282
sI15
S'tiny'
p5283
sI16
S'as'
p5284
sI17
S'those'
p5285
sI18
S'of'
p5286
sI19
S'ant'
p5287
sI20
S'.'
ssg23
(dp5288
(S'b'
g5260
tp5289
S':ARG1'
p5290
s(S's'
g5268
tp5291
S':ARG0'
p5292
s(g5260
S'l'
tp5293
S':domain'
p5294
s(g5256
g5258
tp5295
S':ARG2'
p5296
s(g5260
g5256
tp5297
S':ARG1-of'
p5298
s(g5266
S'a'
tp5299
S':poss'
p5300
s(S'l'
S'p'
tp5301
S':poss'
p5302
s(S'b'
S's'
tp5303
S':time'
p5304
s(g5258
g5266
tp5305
S':domain'
p5306
s(g5268
g5254
tp5307
S':mod'
p5308
s(g27
S'b'
tp5309
g29
s(S'b'
S'r'
tp5310
S':mod'
p5311
ssg40
(dp5312
I0
g13
sI1
VOnce
p5313
sI2
Va
sI3
Vpowerful
p5314
sI4
Vearthquake
p5315
sI5
Vstrikes
p5316
sI6
V,
sI7
Vthe
p5317
sI8
Vpeople
p5318
sI9
V's
p5319
sI10
Vlives
p5320
sI11
Vreally
p5321
sI12
Vdo
p5322
sI13
Vbecome
p5323
sI14
Vas
p5324
sI15
Vtiny
p5325
sI16
Vas
p5326
sI17
Vthose
p5327
sI18
Vof
p5328
sI19
Vants
p5329
sI20
V.
ssg51
S"Once a powerful earthquake strikes, the people's lives really do become as tiny as those of ants."
p5330
sg53
(dp5331
S'a'
(lp5332
S'0.0.1.0.0.0'
p5333
asg5254
(lp5334
S'0.1.0.0'
p5335
asS'b'
(lp5336
S'0'
asg5256
(lp5337
S'0.0.1'
p5338
asg5258
(lp5339
S'0.0.1.0'
p5340
asg5260
(lp5341
S'0.0'
p5342
asS'l'
(lp5343
S'0.0.0'
p5344
asS'p'
(lp5345
S'0.0.0.0'
p5346
asS's'
(lp5347
S'0.1'
p5348
asS'r'
(lp5349
S'0.2'
p5350
asg5266
(lp5351
S'0.0.1.0.0'
p5352
asg5268
(lp5353
S'0.1.0'
p5354
assg68
(dp5355
S'a'
S'ant'
p5356
sg5254
S'powerful'
p5357
sS'b'
S'become'
p5358
sg5256
S'resemble'
p5359
sg5258
S'tiny'
p5360
sg5260
S'tiny'
p5361
sS'l'
S'life'
p5362
sS'p'
S'person'
p5363
sS's'
S'strike'
p5364
sS'r'
S'really'
p5365
sg5266
S'life'
p5366
sg5268
S'earthquake'
p5367
sg27
g73
ssg77
(dp5368
(I10
I8
tp5369
S':nmod-poss'
p5370
s(I5
I4
tp5371
S':compound'
p5372
s(I13
I15
tp5373
S':nmod-as'
p5374
s(I15
I17
tp5375
S':nmod-as'
p5376
s(I19
I18
tp5377
S':case'
p5378
s(I13
I10
tp5379
S':nsubj'
p5380
s(I13
I12
tp5381
S':aux'
p5382
s(I0
I13
tp5383
S':ROOT'
p5384
s(I13
I5
tp5385
S':advcl'
p5386
s(I13
I6
tp5387
S':punct'
p5388
s(I17
I19
tp5389
S':nmod-of'
p5390
s(I8
I7
tp5391
S':det'
p5392
s(I13
I20
tp5393
S':punct'
p5394
s(I5
I1
tp5395
S':advmod'
p5396
s(I8
I9
tp5397
S':case'
p5398
s(I13
I11
tp5399
S':advmod'
p5400
s(I5
I2
tp5401
S':det'
p5402
s(I15
I14
tp5403
S':case'
p5404
s(I17
I16
tp5405
S':case'
p5406
s(I5
I3
tp5407
S':amod'
p5408
sssI50
(dp5409
g3
(dp5410
S'a'
S'0.1'
p5411
sS'p2'
p5412
S'0.2'
p5413
sS'c'
S'0.1.1.1.1.0'
p5414
sS'e'
S'0.1.0.0'
p5415
sS'd'
S'0.1.1.1.0'
p5416
sS'none1'
p5417
S'0.1.1.1.1.0.0.0'
p5418
sS'none0'
p5419
S'0.1.1.0'
p5420
sS'i'
S'0.0'
p5421
sS'l'
S'0.1.1'
p5422
sS'o'
S'0.1.0'
p5423
sS'n'
S'0.2.0'
p5424
sS'p'
S'0'
sS'a2'
p5425
S'0.1.1.1.2'
p5426
sS'l2'
p5427
S'0.1.1.1.1'
p5428
sS'v'
S'0.1.1.1'
p5429
sS'n2'
p5430
S'0.1.1.1.1.0.0'
p5431
sS'none2'
p5432
S'0.2.0.0'
p5433
ssg11
(dp5434
I0
g13
sI1
S'I'
sI2
S'pray'
p5435
sI3
S'to'
p5436
sI4
S'the'
p5437
sI5
S'God'
p5438
sI6
S'to'
p5439
sI7
S'open'
p5440
sI8
S'he'
p5441
sI9
S'eye'
p5442
sI10
S'and'
p5443
sI11
S'do'
p5444
sI12
S'not'
p5445
sI13
S'let'
p5446
sI14
S'disaster'
p5447
sI15
S'visit'
p5448
sI16
S'the'
p5449
sI17
S'chinese'
p5450
sI18
S'land'
p5451
sI19
S'again'
p5452
sI20
S'!'
ssg23
(dp5453
(S'v'
g5425
tp5454
S':mod'
p5455
s(S'p'
S'i'
tp5456
S':ARG0'
p5457
s(S'l'
S'v'
tp5458
S':ARG1'
p5459
s(g27
S'p'
tp5460
g29
s(g5412
S'n'
tp5461
S':name'
p5462
s(S'v'
S'd'
tp5463
S':ARG0'
p5464
s(S'o'
S'e'
tp5465
S':ARG1'
p5466
s(S'p'
S'a'
tp5467
S':ARG1'
p5468
s(g5430
S'none1'
tp5469
S':op1'
p5470
s(S'a'
S'l'
tp5471
S':op2'
p5472
s(S'v'
g5427
tp5473
S':ARG1'
p5474
s(S'l'
S'none0'
tp5475
S':polarity'
p5476
s(g5427
S'c'
tp5477
S':poss'
p5478
s(S'o'
S'p2'
tp5479
S':ARG0'
p5480
s(S'a'
S'o'
tp5481
S':op1'
p5482
s(S'c'
g5430
tp5483
S':name'
p5484
s(S'n'
S'none2'
tp5485
S':op1'
p5486
s(S'p'
g5412
tp5487
S':ARG2'
p5488
s(S'l'
S'p2'
tp5489
S':ARG0'
p5490
s(S'e'
S'p2'
tp5491
S':part-of'
p5492
ssg40
(dp5493
I0
g13
sI1
VI
sI2
Vpray
p5494
sI3
Vto
p5495
sI4
Vthe
p5496
sI5
VGod
p5497
sI6
Vto
p5498
sI7
Vopen
p5499
sI8
Vhis
p5500
sI9
Veyes
p5501
sI10
Vand
p5502
sI11
Vdo
p5503
sI12
Vn't
p5504
sI13
Vlet
p5505
sI14
Vdisasters
p5506
sI15
Vvisit
p5507
sI16
Vthe
p5508
sI17
VChinese
p5509
sI18
Vland
p5510
sI19
Vagain
p5511
sI20
V!
ssg51
S"I pray to the God to open his eyes and don't let disasters visit the Chinese land again!"
p5512
sg53
(dp5513
S'a'
(lp5514
S'0.1'
p5515
asg5412
(lp5516
S'0.2'
p5517
asS'c'
(lp5518
S'0.1.1.1.1.0'
p5519
asS'e'
(lp5520
S'0.1.0.0'
p5521
asS'd'
(lp5522
S'0.1.1.1.0'
p5523
asS'none1'
p5524
(lp5525
S'0.1.1.1.1.0.0.0'
p5526
asS'none0'
p5527
(lp5528
S'0.1.1.0'
p5529
asS'i'
(lp5530
S'0.0'
p5531
asS'l'
(lp5532
S'0.1.1'
p5533
asS'o'
(lp5534
S'0.1.0'
p5535
asS'n'
(lp5536
S'0.2.0'
p5537
asS'p'
(lp5538
S'0'
asg5425
(lp5539
S'0.1.1.1.2'
p5540
asg5427
(lp5541
S'0.1.1.1.1'
p5542
asS'v'
(lp5543
S'0.1.1.1'
p5544
asg5430
(lp5545
S'0.1.1.1.1.0.0'
p5546
asS'none2'
p5547
(lp5548
S'0.2.0.0'
p5549
assg68
(dp5550
S'a'
S'and'
p5551
sg5412
S'person'
p5552
sS'c'
S'country'
p5553
sS'e'
S'eye'
p5554
sS'd'
S'disaster'
p5555
sg5417
S'China'
p5556
sg5419
S'-'
sS'i'
S'i'
sg27
g73
sS'l'
S'let'
p5557
sS'o'
S'open'
p5558
sS'n'
S'name'
p5559
sS'p'
S'pray'
p5560
sg5425
S'again'
p5561
sg5427
S'land'
p5562
sS'v'
S'visit'
p5563
sg5430
S'name'
p5564
sg5432
S'God'
p5565
ssg77
(dp5566
(I2
I7
tp5567
S':xcomp'
p5568
s(I5
I4
tp5569
S':det'
p5570
s(I13
I15
tp5571
S':ccomp'
p5572
s(I15
I14
tp5573
S':nsubj'
p5574
s(I15
I18
tp5575
S':dobj'
p5576
s(I7
I6
tp5577
S':mark'
p5578
s(I7
I13
tp5579
S':conj-and'
p5580
s(I9
I8
tp5581
S':nmod-poss'
p5582
s(I13
I12
tp5583
S':neg'
p5584
s(I2
I1
tp5585
S':nsubj'
p5586
s(I2
I20
tp5587
S':punct'
p5588
s(I18
I16
tp5589
S':det'
p5590
s(I2
I13
tp5591
S':xcomp'
p5592
s(I18
I17
tp5593
S':amod'
p5594
s(I13
I11
tp5595
S':aux'
p5596
s(I7
I10
tp5597
S':cc'
p5598
s(I15
I19
tp5599
S':advmod'
p5600
s(I2
I5
tp5601
S':nmod-to'
p5602
s(I7
I9
tp5603
S':dobj'
p5604
s(I0
I2
tp5605
S':ROOT'
p5606
s(I5
I3
tp5607
S':case'
p5608
sssI51
(dp5609
g3
(dp5610
S'a'
S'0.0'
p5611
sS'd'
S'0.0.0.0'
p5612
sS'f'
S'0.0.1.0'
p5613
sS's3'
p5614
S'0.0.2'
p5615
sS's2'
p5616
S'0.0.1'
p5617
sS's4'
p5618
S'0.0.2.0'
p5619
sS's'
S'0.0.0'
p5620
sS'a2'
p5621
S'0'
ssg11
(dp5622
I0
g13
sI1
S'the'
p5623
sI2
S'aim'
p5624
sI3
S'be'
p5625
sI4
S'to'
p5626
sI5
S'settle'
p5627
sI6
S'dispute'
p5628
sI7
S','
sI8
S'stop'
p5629
sI9
S'fight'
p5630
sI10
S'and'
p5631
sI11
S'stabilize'
p5632
sI12
S'the'
p5633
sI13
S'society'
p5634
sI14
S'.'
ssg23
(dp5635
(S's'
S'd'
tp5636
S':ARG1'
p5637
s(g27
g5621
tp5638
g29
s(S'a'
S's'
tp5639
S':op1'
p5640
s(S'a'
g5616
tp5641
S':op2'
p5642
s(g5621
S'a'
tp5643
S':ARG1'
p5644
s(S'a'
g5614
tp5645
S':op3'
p5646
s(g5614
g5618
tp5647
S':ARG1'
p5648
s(g5616
S'f'
tp5649
S':ARG1'
p5650
ssg40
(dp5651
I0
g13
sI1
VThe
p5652
sI2
Vaim
p5653
sI3
Vwas
p5654
sI4
Vto
p5655
sI5
Vsettle
p5656
sI6
Vdisputes
p5657
sI7
V,
sI8
Vstop
p5658
sI9
Vfights
p5659
sI10
Vand
p5660
sI11
Vstabilize
p5661
sI12
Vthe
p5662
sI13
Vsociety
p5663
sI14
V.
ssg51
S'The aim was to settle disputes, stop fights and stabilize the society.'
p5664
sg53
(dp5665
S'a'
(lp5666
S'0.0'
p5667
asS'd'
(lp5668
S'0.0.0.0'
p5669
asS'f'
(lp5670
S'0.0.1.0'
p5671
asg5614
(lp5672
S'0.0.2'
p5673
asg5616
(lp5674
S'0.0.1'
p5675
asg5618
(lp5676
S'0.0.2.0'
p5677
asS's'
(lp5678
S'0.0.0'
p5679
asg5621
(lp5680
S'0'
assg68
(dp5681
S'a'
S'and'
p5682
sS'd'
S'dispute'
p5683
sS'f'
S'fight'
p5684
sg5614
S'stabilize'
p5685
sg5616
S'stop'
p5686
sg27
g73
sg5618
S'society'
p5687
sS's'
S'settle'
p5688
sg5621
S'aim'
p5689
ssg77
(dp5690
(I8
I9
tp5691
S':dobj'
p5692
s(I5
I4
tp5693
S':mark'
p5694
s(I5
I10
tp5695
S':cc'
p5696
s(I5
I11
tp5697
S':conj-and'
p5698
s(I5
I6
tp5699
S':dobj'
p5700
s(I5
I7
tp5701
S':punct'
p5702
s(I3
I2
tp5703
S':nsubj'
p5704
s(I2
I1
tp5705
S':det'
p5706
s(I3
I11
tp5707
S':xcomp'
p5708
s(I3
I8
tp5709
S':xcomp'
p5710
s(I3
I14
tp5711
S':punct'
p5712
s(I13
I12
tp5713
S':det'
p5714
s(I0
I3
tp5715
S':ROOT'
p5716
s(I11
I13
tp5717
S':dobj'
p5718
s(I5
I8
tp5719
S':conj-and'
p5720
s(I3
I5
tp5721
S':xcomp'
p5722
sssI52
(dp5723
g3
(dp5724
S'a'
S'0.0.0.1.0.1'
p5725
sS'p3'
p5726
S'0.0.0.1.0'
p5727
sS'c'
S'0'
sS'none0'
p5728
S'0.1.0'
p5729
sS'h'
S'0.0.0.0'
p5730
sS'm'
S'0.0.0'
p5731
sS'l'
S'0.1.1.0.0'
p5732
sS'p'
S'0.0'
p5733
sS'p2'
p5734
S'0.1'
p5735
sS't'
S'0.0.0.1'
p5736
sS'm3'
p5737
S'0.0.0.1.0.0.0'
p5738
sS'm2'
p5739
S'0.0.0.1.0.0'
p5740
sS'm4'
p5741
S'0.1.1'
p5742
sS'a2'
p5743
S'0.1.1.0'
p5744
ssg11
(dp5745
I0
g13
sI1
S'human'
p5746
sI2
S'can'
p5747
sI3
S'manufacture'
p5748
sI4
S'tank'
p5749
sI5
S'that'
p5750
sI6
S'be'
p5751
sI7
S'much'
p5752
sI8
S'more'
p5753
sI9
S'powerful'
p5754
sI10
S'than'
p5755
sI11
S'ant'
p5756
sI12
S','
sI13
S'but'
p5757
sI14
S'human'
p5758
sI15
S'can'
p5759
sI16
S'not'
p5760
sI17
S'manufacture'
p5761
sI18
S'a'
sI19
S'living'
p5762
sI20
S'ant'
p5763
sI21
S'...'
p5764
ssg23
(dp5765
(S'm'
S't'
tp5766
S':ARG1'
p5767
s(g5741
g5743
tp5768
S':ARG1'
p5769
s(g5741
S'h'
tp5770
S':ARG0'
p5771
s(g5726
g5739
tp5772
S':degree'
p5773
s(S't'
g5726
tp5774
S':mod'
p5775
s(g5739
g5737
tp5776
S':mod'
p5777
s(g5734
S'none0'
tp5778
S':polarity'
p5779
s(g5734
g5741
tp5780
S':domain'
p5781
s(S'c'
g5734
tp5782
S':ARG2'
p5783
s(S'p'
S'm'
tp5784
S':domain'
p5785
s(g5743
S'l'
tp5786
S':ARG0-of'
p5787
s(g5726
S'a'
tp5788
S':compared-to'
p5789
s(S'm'
S'h'
tp5790
S':ARG0'
p5791
s(S'c'
S'p'
tp5792
S':ARG1'
p5793
s(g27
S'c'
tp5794
g29
ssg40
(dp5795
I0
g13
sI1
VHumans
p5796
sI2
Vcan
p5797
sI3
Vmanufacture
p5798
sI4
Vtanks
p5799
sI5
Vthat
p5800
sI6
Vare
p5801
sI7
Vmuch
p5802
sI8
Vmore
p5803
sI9
Vpowerful
p5804
sI10
Vthan
p5805
sI11
Vants
p5806
sI12
V,
sI13
Vbut
p5807
sI14
Vhumans
p5808
sI15
Vcan
p5809
sI16
Vnot
p5810
sI17
Vmanufacture
p5811
sI18
Va
sI19
Vliving
p5812
sI20
Vant
p5813
sI21
V...
p5814
ssg51
S'Humans can manufacture tanks that are much more powerful than ants, but humans cannot manufacture a living ant...'
p5815
sg53
(dp5816
S'a'
(lp5817
S'0.0.0.1.0.1'
p5818
asg5726
(lp5819
S'0.0.0.1.0'
p5820
asS'c'
(lp5821
S'0'
asS'none0'
p5822
(lp5823
S'0.1.0'
p5824
asS'h'
(lp5825
S'0.0.0.0'
p5826
asS'm'
(lp5827
S'0.0.0'
p5828
asS'l'
(lp5829
S'0.1.1.0.0'
p5830
asS'p'
(lp5831
S'0.0'
p5832
asg5734
(lp5833
S'0.1'
p5834
asS't'
(lp5835
S'0.0.0.1'
p5836
asg5737
(lp5837
S'0.0.0.1.0.0.0'
p5838
asg5739
(lp5839
S'0.0.0.1.0.0'
p5840
asg5741
(lp5841
S'0.1.1'
p5842
asg5743
(lp5843
S'0.1.1.0'
p5844
assg68
(dp5845
S'a'
S'ant'
p5846
sg5726
S'powerful'
p5847
sS'c'
S'contrast'
p5848
sg5728
S'-'
sS'h'
S'human'
p5849
sg27
g73
sS'm'
S'manufacture'
p5850
sS'l'
S'live'
p5851
sS'p'
S'possible'
p5852
sg5734
S'possible'
p5853
sS't'
S'tank'
p5854
sg5737
S'much'
p5855
sg5739
S'more'
p5856
sg5741
S'manufacture'
p5857
sg5743
S'ant'
p5858
ssg77
(dp5859
(I9
I8
tp5860
S':advmod'
p5861
s(I17
I20
tp5862
S':dobj'
p5863
s(I3
I21
tp5864
S':punct'
p5865
s(I9
I4
tp5866
S':nsubj'
p5867
s(I0
I3
tp5868
S':ROOT'
p5869
s(I3
I17
tp5870
S':conj-but'
p5871
s(I17
I16
tp5872
S':neg'
p5873
s(I17
I15
tp5874
S':aux'
p5875
s(I11
I10
tp5876
S':case'
p5877
s(I4
I9
tp5878
S':acl-relcl'
p5879
s(I9
I11
tp5880
S':nmod-than'
p5881
s(I20
I18
tp5882
S':det'
p5883
s(I17
I14
tp5884
S':nsubj'
p5885
s(I9
I7
tp5886
S':advmod'
p5887
s(I3
I2
tp5888
S':aux'
p5889
s(I3
I13
tp5890
S':cc'
p5891
s(I4
I5
tp5892
S':ref'
p5893
s(I20
I19
tp5894
S':amod'
p5895
s(I9
I6
tp5896
S':cop'
p5897
s(I3
I12
tp5898
S':punct'
p5899
s(I3
I1
tp5900
S':nsubj'
p5901
s(I3
I4
tp5902
S':dobj'
p5903
sssI53
(dp5904
g3
(dp5905
S'p2'
p5906
S'0.1.0'
p5907
sS'c'
S'0.1'
p5908
sS'b'
S'0.1.1'
p5909
sS'd'
S'0.1.0.0'
p5910
sS'g'
S'0.1.0.1.0'
p5911
sS'none0'
p5912
S'0.0'
p5913
sS'h'
S'0.1.0.1'
p5914
sS'p'
S'0'
ssg11
(dp5915
I0
g13
sI1
S'a'
sI2
S'defeat'
p5916
sI3
S'general'
p5917
sI4
S'can'
p5918
sI5
S'not'
p5919
sI6
S'claim'
p5920
sI7
S'to'
p5921
sI8
S'be'
p5922
sI9
S'brave'
p5923
sI10
S'.'
ssg23
(dp5924
(g27
S'p'
tp5925
g29
s(S'p'
S'none0'
tp5926
S':polarity'
p5927
s(S'b'
S'p2'
tp5928
S':domain'
p5929
s(S'p'
S'c'
tp5930
S':domain'
p5931
s(S'c'
g5906
tp5932
S':ARG0'
p5933
s(g5906
S'd'
tp5934
S':ARG1-of'
p5935
s(g5906
S'h'
tp5936
S':ARG0-of'
p5937
s(S'c'
S'b'
tp5938
S':ARG1'
p5939
s(S'h'
S'g'
tp5940
S':ARG2'
p5941
ssg40
(dp5942
I0
g13
sI1
VA
sI2
Vdefeated
p5943
sI3
Vgeneral
p5944
sI4
Vca
p5945
sI5
Vn't
p5946
sI6
Vclaim
p5947
sI7
Vto
p5948
sI8
Vbe
p5949
sI9
Vbrave
p5950
sI10
V.
ssg51
S"A defeated general can't claim to be brave."
p5951
sg53
(dp5952
g5906
(lp5953
S'0.1.0'
p5954
asS'c'
(lp5955
S'0.1'
p5956
asS'b'
(lp5957
S'0.1.1'
p5958
asS'd'
(lp5959
S'0.1.0.0'
p5960
asS'g'
(lp5961
S'0.1.0.1.0'
p5962
asS'none0'
p5963
(lp5964
S'0.0'
p5965
asS'h'
(lp5966
S'0.1.0.1'
p5967
asS'p'
(lp5968
S'0'
assg68
(dp5969
g5906
S'person'
p5970
sS'c'
S'claim'
p5971
sS'b'
S'brave'
p5972
sS'd'
S'defeat'
p5973
sS'g'
S'general'
p5974
sg5912
S'-'
sS'h'
S'have-org-role'
p5975
sg27
g73
sS'p'
S'possible'
p5976
ssg77
(dp5977
(I6
I4
tp5978
S':aux'
p5979
s(I3
I2
tp5980
S':amod'
p5981
s(I9
I3
tp5982
S':nsubj'
p5983
s(I9
I8
tp5984
S':cop'
p5985
s(I3
I1
tp5986
S':det'
p5987
s(I6
I9
tp5988
S':xcomp'
p5989
s(I6
I3
tp5990
S':nsubj'
p5991
s(I0
I6
tp5992
S':ROOT'
p5993
s(I6
I10
tp5994
S':punct'
p5995
s(I6
I5
tp5996
S':neg'
p5997
s(I9
I7
tp5998
S':mark'
p5999
sssI54
(dp6000
g3
(dp6001
S'd'
S'0.2.1'
p6002
sS'g'
S'0.2'
p6003
sS'none0'
p6004
S'0.0'
p6005
sS'h'
S'0.2.0'
p6006
sS'f'
S'0'
sS'y'
S'0.1'
p6007
ssg11
(dp6008
I0
g13
sI1
S'be'
p6009
sI2
S'you'
p6010
sI3
S'afraid'
p6011
sI4
S'of'
p6012
sI5
S'go'
p6013
sI6
S'to'
p6014
sI7
S'Hell'
p6015
sI8
S'when'
p6016
sI9
S'you'
p6017
sI10
S'die'
p6018
sI11
S'?'
ssg23
(dp6019
(S'g'
S'h'
tp6020
S':ARG4'
p6021
s(g27
S'f'
tp6022
g29
s(S'f'
S'g'
tp6023
S':ARG1'
p6024
s(S'f'
S'y'
tp6025
S':ARG0'
p6026
s(S'f'
S'none0'
tp6027
S':mode'
p6028
s(S'd'
S'y'
tp6029
S':ARG1'
p6030
s(S'g'
S'y'
tp6031
S':ARG1'
p6032
s(S'g'
S'd'
tp6033
S':time'
p6034
ssg40
(dp6035
I0
g13
sI1
VAre
p6036
sI2
Vyou
p6037
sI3
Vafraid
p6038
sI4
Vof
p6039
sI5
Vgoing
p6040
sI6
Vto
p6041
sI7
VHell
p6042
sI8
Vwhen
p6043
sI9
Vyou
p6044
sI10
Vdie
p6045
sI11
V?
ssg51
S'Are you afraid of going to Hell when you die?'
p6046
sg53
(dp6047
S'd'
(lp6048
S'0.2.1'
p6049
asS'g'
(lp6050
S'0.2'
p6051
asS'f'
(lp6052
S'0'
asS'h'
(lp6053
S'0.2.0'
p6054
asS'none0'
p6055
(lp6056
S'0.0'
p6057
asS'y'
(lp6058
S'0.1'
p6059
assg68
(dp6060
S'd'
S'die'
p6061
sS'g'
S'go'
p6062
sg6004
S'interrogative'
p6063
sS'h'
S'hell'
p6064
sg27
g73
sS'f'
S'fear'
p6065
sS'y'
S'you'
p6066
ssg77
(dp6067
(I10
I8
tp6068
S':advmod'
p6069
s(I5
I4
tp6070
S':mark'
p6071
s(I5
I7
tp6072
S':nmod-to'
p6073
s(I5
I10
tp6074
S':advcl'
p6075
s(I7
I6
tp6076
S':case'
p6077
s(I3
I1
tp6078
S':cop'
p6079
s(I3
I2
tp6080
S':nsubj'
p6081
s(I3
I11
tp6082
S':punct'
p6083
s(I0
I3
tp6084
S':ROOT'
p6085
s(I10
I9
tp6086
S':nsubj'
p6087
s(I3
I5
tp6088
S':advcl'
p6089
sssI55
(dp6090
g3
(dp6091
S'i'
S'0.1'
p6092
sS'a'
S'0.2'
p6093
sS's'
S'0'
sS't'
S'0.0'
p6094
ssg11
(dp6095
I0
g13
sI1
S'how'
p6096
sI2
S'do'
p6097
sI3
S'they'
p6098
sI4
S'set'
p6099
sI5
S'it'
p6100
sI6
S'up'
p6101
sI7
S'?'
ssg23
(dp6102
(S's'
S'i'
tp6103
S':ARG1'
p6104
s(S's'
S't'
tp6105
S':ARG0'
p6106
s(g27
S's'
tp6107
g29
s(S's'
S'a'
tp6108
S':manner'
p6109
ssg40
(dp6110
I0
g13
sI1
VHow
p6111
sI2
Vdid
p6112
sI3
Vthey
p6113
sI4
Vset
p6114
sI5
Vit
p6115
sI6
Vup
p6116
sI7
V?
ssg51
S'How did they set it up?'
p6117
sg53
(dp6118
S'i'
(lp6119
S'0.1'
p6120
asS'a'
(lp6121
S'0.2'
p6122
asS's'
(lp6123
S'0'
asS't'
(lp6124
S'0.0'
p6125
assg68
(dp6126
S'i'
S'it'
p6127
sS'a'
S'amr-unknown'
p6128
sS's'
S'set'
p6129
sg27
g73
sS't'
S'they'
p6130
ssg77
(dp6131
(I4
I7
tp6132
S':punct'
p6133
s(I4
I6
tp6134
S':compound-prt'
p6135
s(I4
I5
tp6136
S':dobj'
p6137
s(I4
I3
tp6138
S':nsubj'
p6139
s(I0
I4
tp6140
S':ROOT'
p6141
s(I4
I2
tp6142
S':aux'
p6143
s(I4
I1
tp6144
S':advmod'
p6145
sssI56
(dp6146
g3
(dp6147
S'e'
S'0.0'
p6148
sS's3'
p6149
S'0.1.2'
p6150
sS's2'
p6151
S'0.1'
p6152
sS't2'
p6153
S'0.1.1'
p6154
sS'l'
S'0.1.3'
p6155
sS'q'
S'0.1.4.0'
p6156
sS'p'
S'0.1.0'
p6157
sS'v2'
p6158
S'0.1.4'
p6159
sS'l2'
p6160
S'0.1.3.0'
p6161
sS't'
S'0.0.0'
p6162
sS'w'
S'0.1.2.0'
p6163
sS'v'
S'0.1.1.0'
p6164
sS's'
S'0.0.0.0'
p6165
sS'h'
S'0'
ssg11
(dp6166
I0
g13
sI1
S'strike-type'
p6167
sI2
S'earthquake'
p6168
sI3
S'have'
p6169
sI4
S'various'
p6170
sI5
S'type'
p6171
sI6
S'of'
p6172
sI7
S'precursory'
p6173
sI8
S'sign'
p6174
sI9
S','
sI10
S'which'
p6175
sI11
S'be'
p6176
sI12
S'widespread'
p6177
sI13
S','
sI14
S'long-lasting'
p6178
sI15
S','
sI16
S'and'
p6179
sI17
S'quite'
p6180
sI18
S'variable'
p6181
sI19
S'.'
ssg23
(dp6182
(g6151
S'l'
tp6183
S':ARG1-of'
p6184
s(g6158
S'q'
tp6185
S':ARG2'
p6186
s(g6149
S'w'
tp6187
S':extent'
p6188
s(g6151
g6149
tp6189
S':ARG1-of'
p6190
s(S'h'
g6151
tp6191
S':ARG1'
p6192
s(g27
S'h'
tp6193
g29
s(g6151
g6158
tp6194
S':ARG1-of'
p6195
s(g6151
S'p'
tp6196
S':ARG0-of'
p6197
s(S'h'
S'e'
tp6198
S':ARG0'
p6199
s(S'e'
S't'
tp6200
S':mod'
p6201
s(g6153
S'v'
tp6202
S':mod'
p6203
s(S't'
S's'
tp6204
S':mod'
p6205
s(S'l'
g6160
tp6206
S':ARG2'
p6207
s(g6151
g6153
tp6208
S':mod'
p6209
ssg40
(dp6210
I0
g13
sI1
VStrike-type
p6211
sI2
Vearthquakes
p6212
sI3
Vhave
p6213
sI4
Vvarious
p6214
sI5
Vtypes
p6215
sI6
Vof
p6216
sI7
Vprecursory
p6217
sI8
Vsigns
p6218
sI9
V,
sI10
Vwhich
p6219
sI11
Vare
p6220
sI12
Vwidespread
p6221
sI13
V,
sI14
Vlong-lasting
p6222
sI15
V,
sI16
Vand
p6223
sI17
Vquite
p6224
sI18
Vvariable
p6225
sI19
V.
ssg51
S'Strike-type earthquakes have various types of precursory signs, which are widespread, long-lasting, and quite variable.'
p6226
sg53
(dp6227
S'e'
(lp6228
S'0.0'
p6229
asg6149
(lp6230
S'0.1.2'
p6231
asg6151
(lp6232
S'0.1'
p6233
asS'v'
(lp6234
S'0.1.1.0'
p6235
asg6153
(lp6236
S'0.1.1'
p6237
asS'l'
(lp6238
S'0.1.3'
p6239
asS'q'
(lp6240
S'0.1.4.0'
p6241
asS'p'
(lp6242
S'0.1.0'
p6243
asg6158
(lp6244
S'0.1.4'
p6245
asg6160
(lp6246
S'0.1.3.0'
p6247
asS't'
(lp6248
S'0.0.0'
p6249
asS'w'
(lp6250
S'0.1.2.0'
p6251
asS'h'
(lp6252
S'0'
asS's'
(lp6253
S'0.0.0.0'
p6254
assg68
(dp6255
S'e'
S'earthquake'
p6256
sg6149
S'spread'
p6257
sg6151
S'sign'
p6258
sg27
g73
sg6153
S'type'
p6259
sS'l'
S'last'
p6260
sS'q'
S'quite'
p6261
sS'p'
S'precede'
p6262
sg6158
S'vary'
p6263
sg6160
S'long'
p6264
sS't'
S'type'
p6265
sS'w'
S'wide'
p6266
sS'v'
S'various'
p6267
sS's'
S'strike'
p6268
sS'h'
S'have'
p6269
ssg77
(dp6270
(I8
I7
tp6271
S':compound'
p6272
s(I3
I2
tp6273
S':nsubj'
p6274
s(I2
I1
tp6275
S':amod'
p6276
s(I8
I9
tp6277
S':punct'
p6278
s(I12
I16
tp6279
S':cc'
p6280
s(I18
I8
tp6281
S':nsubj'
p6282
s(I0
I3
tp6283
S':ROOT'
p6284
s(I5
I8
tp6285
S':nmod-of'
p6286
s(I8
I14
tp6287
S':acl-relcl'
p6288
s(I12
I13
tp6289
S':punct'
p6290
s(I8
I10
tp6291
S':ref'
p6292
s(I8
I6
tp6293
S':case'
p6294
s(I5
I4
tp6295
S':amod'
p6296
s(I12
I14
tp6297
S':conj-and'
p6298
s(I18
I17
tp6299
S':advmod'
p6300
s(I12
I18
tp6301
S':conj-and'
p6302
s(I3
I19
tp6303
S':punct'
p6304
s(I12
I11
tp6305
S':cop'
p6306
s(I3
I5
tp6307
S':dobj'
p6308
s(I12
I15
tp6309
S':punct'
p6310
s(I8
I12
tp6311
S':acl-relcl'
p6312
s(I8
I18
tp6313
S':acl-relcl'
p6314
s(I14
I8
tp6315
S':nsubj'
p6316
s(I12
I8
tp6317
S':nsubj'
p6318
sssI57
(dp6319
g3
(dp6320
S'p2'
p6321
S'0.0.1'
p6322
sS'c'
S'0'
sS'b'
S'0.1.0.1'
p6323
sS'd'
S'0.0.1.0'
p6324
sS'none1'
p6325
S'0.1.0.0'
p6326
sS'none0'
p6327
S'0.0.0'
p6328
sS'n'
S'0.0.1.0.0'
p6329
sS'p'
S'0.0'
p6330
sS's'
S'0.1.0.1.0'
p6331
sS'r'
S'0.1'
p6332
sS'c2'
p6333
S'0.1.0'
p6334
ssg11
(dp6335
I0
g13
sI1
S'natural'
p6336
sI2
S'disaster'
p6337
sI3
S'can'
p6338
sI4
S'not'
p6339
sI5
S'be'
p6340
sI6
S'predict'
p6341
sI7
S','
sI8
S'but'
p6342
sI9
S'the'
p6343
sI10
S'school'
p6344
sI11
S'building'
p6345
sI12
S'should'
p6346
sI13
S'not'
p6347
sI14
S'have'
p6348
sI15
S'collapse'
p6349
sI16
S'.'
ssg23
(dp6350
(S'c'
S'r'
tp6351
S':ARG2'
p6352
s(S'p'
S'none0'
tp6353
S':polarity'
p6354
s(S'p'
g6321
tp6355
S':domain'
p6356
s(g6333
S'none1'
tp6357
S':polarity'
p6358
s(S'b'
S's'
tp6359
S':mod'
p6360
s(S'd'
S'n'
tp6361
S':mod'
p6362
s(g6321
S'd'
tp6363
S':ARG1'
p6364
s(g6333
S'b'
tp6365
S':ARG1'
p6366
s(S'r'
g6333
tp6367
S':ARG1'
p6368
s(S'c'
S'p'
tp6369
S':ARG1'
p6370
s(g27
S'c'
tp6371
g29
ssg40
(dp6372
I0
g13
sI1
VNatural
p6373
sI2
Vdisasters
p6374
sI3
Vcan
p6375
sI4
Vnot
p6376
sI5
Vbe
p6377
sI6
Vpredicted
p6378
sI7
V,
sI8
Vbut
p6379
sI9
Vthe
p6380
sI10
Vschool
p6381
sI11
Vbuildings
p6382
sI12
Vshould
p6383
sI13
Vnot
p6384
sI14
Vhave
p6385
sI15
Vcollapsed
p6386
sI16
V.
ssg51
S'Natural disasters cannot be predicted, but the school buildings should not have collapsed.'
p6387
sg53
(dp6388
g6321
(lp6389
S'0.0.1'
p6390
asS'c'
(lp6391
S'0'
asS'b'
(lp6392
S'0.1.0.1'
p6393
asS'd'
(lp6394
S'0.0.1.0'
p6395
asS'none1'
p6396
(lp6397
S'0.1.0.0'
p6398
asS'none0'
p6399
(lp6400
S'0.0.0'
p6401
asS'n'
(lp6402
S'0.0.1.0.0'
p6403
asS'p'
(lp6404
S'0.0'
p6405
asS's'
(lp6406
S'0.1.0.1.0'
p6407
asS'r'
(lp6408
S'0.1'
p6409
asg6333
(lp6410
S'0.1.0'
p6411
assg68
(dp6412
g6321
S'predict'
p6413
sS'c'
S'contrast'
p6414
sS'b'
S'building'
p6415
sS'd'
S'disaster'
p6416
sg6325
S'-'
sg6327
S'-'
sg27
g73
sS'n'
S'natural'
p6417
sS'p'
S'possible'
p6418
sS's'
S'school'
p6419
sS'r'
S'recommend'
p6420
sg6333
S'collapse'
p6421
ssg77
(dp6422
(I15
I12
tp6423
S':aux'
p6424
s(I6
I4
tp6425
S':neg'
p6426
s(I11
I10
tp6427
S':compound'
p6428
s(I15
I13
tp6429
S':neg'
p6430
s(I6
I7
tp6431
S':punct'
p6432
s(I6
I8
tp6433
S':cc'
p6434
s(I15
I11
tp6435
S':nsubj'
p6436
s(I11
I9
tp6437
S':det'
p6438
s(I2
I1
tp6439
S':amod'
p6440
s(I6
I3
tp6441
S':aux'
p6442
s(I0
I6
tp6443
S':ROOT'
p6444
s(I6
I2
tp6445
S':nsubjpass'
p6446
s(I15
I14
tp6447
S':aux'
p6448
s(I6
I15
tp6449
S':conj-but'
p6450
s(I6
I16
tp6451
S':punct'
p6452
s(I6
I5
tp6453
S':auxpass'
p6454
sssI58
(dp6455
g3
(dp6456
S'a'
S'0.1'
p6457
sS'c'
S'0.2'
p6458
sS'b'
S'0.1.1'
p6459
sS'e'
S'0.2.0.1.0'
p6460
sS'g'
S'0'
sS'f'
S'0.2.0.0.1'
p6461
sS'i'
S'0.1.2'
p6462
sS'm'
S'0.1.0.0'
p6463
sS'o'
S'0.1.0'
p6464
sS'n'
S'0.2.0.2'
p6465
sS'p'
S'0.2.0.1'
p6466
sS'u'
S'0.0'
p6467
sS'w2'
p6468
S'0.2.0.0.0'
p6469
sS'w'
S'0.0.0'
p6470
sS'y'
S'0.2.0.1.1'
p6471
sS'u2'
p6472
S'0.2.0.0'
p6473
sS't'
S'0.2.0'
p6474
ssg11
(dp6475
I0
g13
sI1
S'due'
p6476
sI2
S'to'
p6477
sI3
S'formal'
p6478
sI4
S'work'
p6479
sI5
S'unit'
p6480
sI6
S'no'
p6481
sI7
S'longer'
p6482
sI8
S'take'
p6483
sI9
S'on'
p6484
sI10
S'young'
p6485
sI11
S'employee'
p6486
sI12
S','
sI13
S'work'
p6487
sI14
S'unit'
p6488
sI15
S'get'
p6489
sI16
S'increasingly'
p6490
sI17
S'older'
p6491
sI18
S'and'
p6492
sI19
S'break'
p6493
sI20
S'up'
p6494
sI21
S'.'
ssg23
(dp6495
(S't'
g6472
tp6496
S':ARG0'
p6497
s(S'u'
S'w'
tp6498
S':ARG0-of'
p6499
s(S'o'
S'm'
tp6500
S':degree'
p6501
s(S'a'
S'o'
tp6502
S':op1'
p6503
s(S'c'
S't'
tp6504
S':ARG0'
p6505
s(g6472
g6468
tp6506
S':ARG0-of'
p6507
s(S'b'
S'u'
tp6508
S':ARG1'
p6509
s(S'g'
S'a'
tp6510
S':ARG2'
p6511
s(S't'
S'n'
tp6512
S':time'
p6513
s(S'g'
S'u'
tp6514
S':ARG1'
p6515
s(S'p'
S'y'
tp6516
S':mod'
p6517
s(S'g'
S'c'
tp6518
S':ARG1-of'
p6519
s(g6472
S'f'
tp6520
S':mod'
p6521
s(S't'
S'p'
tp6522
S':ARG1'
p6523
s(S'a'
S'b'
tp6524
S':op2'
p6525
s(S'a'
S'i'
tp6526
S':manner'
p6527
s(g27
S'g'
tp6528
g29
s(S'p'
S'e'
tp6529
S':ARG1-of'
p6530
ssg40
(dp6531
I0
g13
sI1
VDue
p6532
sI2
Vto
p6533
sI3
Vformal
p6534
sI4
Vworking
p6535
sI5
Vunits
p6536
sI6
Vno
p6537
sI7
Vlonger
p6538
sI8
Vtaking
p6539
sI9
Von
p6540
sI10
Vyoung
p6541
sI11
Vemployees
p6542
sI12
V,
sI13
Vworking
p6543
sI14
Vunits
p6544
sI15
Vgot
p6545
sI16
Vincreasingly
p6546
sI17
Volder
p6547
sI18
Vand
p6548
sI19
Vbroken
p6549
sI20
Vup
p6550
sI21
V.
ssg51
S'Due to formal working units no longer taking on young employees, working units got increasingly older and broken up.'
p6551
sg53
(dp6552
S'a'
(lp6553
S'0.1'
p6554
asS'c'
(lp6555
S'0.2'
p6556
asS'b'
(lp6557
S'0.1.1'
p6558
asS'e'
(lp6559
S'0.2.0.1.0'
p6560
asS'g'
(lp6561
S'0'
asS'f'
(lp6562
S'0.2.0.0.1'
p6563
asS'i'
(lp6564
S'0.1.2'
p6565
asS'm'
(lp6566
S'0.1.0.0'
p6567
asS'o'
(lp6568
S'0.1.0'
p6569
asS'n'
(lp6570
S'0.2.0.2'
p6571
asS'p'
(lp6572
S'0.2.0.1'
p6573
asS'u'
(lp6574
S'0.0'
p6575
asg6468
(lp6576
S'0.2.0.0.0'
p6577
asS'w'
(lp6578
S'0.0.0'
p6579
asS'y'
(lp6580
S'0.2.0.1.1'
p6581
asg6472
(lp6582
S'0.2.0.0'
p6583
asS't'
(lp6584
S'0.2.0'
p6585
assg68
(dp6586
S'a'
S'and'
p6587
sS'c'
S'cause'
p6588
sS'b'
S'break'
p6589
sS'e'
S'employ'
p6590
sS'g'
S'get'
p6591
sS'f'
S'formal'
p6592
sS'i'
S'increase'
p6593
sg27
g73
sS'm'
S'more'
p6594
sS'o'
S'old'
p6595
sS'n'
S'no-longer'
p6596
sS'p'
S'person'
p6597
sS'u'
S'unit'
p6598
sg6468
S'work'
p6599
sS'w'
S'work'
p6600
sS'y'
S'young'
p6601
sg6472
S'unit'
p6602
sS't'
S'take'
p6603
ssg77
(dp6604
(I14
I13
tp6605
S':amod'
p6606
s(I15
I1
tp6607
S':advmod'
p6608
s(I8
I9
tp6609
S':compound-prt'
p6610
s(I15
I19
tp6611
S':xcomp'
p6612
s(I17
I16
tp6613
S':advmod'
p6614
s(I5
I8
tp6615
S':acl'
p6616
s(I15
I12
tp6617
S':punct'
p6618
s(I11
I10
tp6619
S':amod'
p6620
s(I0
I15
tp6621
S':ROOT'
p6622
s(I7
I6
tp6623
S':neg'
p6624
s(I1
I5
tp6625
S':nmod-to'
p6626
s(I5
I3
tp6627
S':amod'
p6628
s(I5
I4
tp6629
S':amod'
p6630
s(I17
I19
tp6631
S':conj-and'
p6632
s(I8
I11
tp6633
S':dobj'
p6634
s(I8
I7
tp6635
S':advmod'
p6636
s(I15
I14
tp6637
S':nsubj'
p6638
s(I19
I20
tp6639
S':compound-prt'
p6640
s(I15
I17
tp6641
S':xcomp'
p6642
s(I17
I18
tp6643
S':cc'
p6644
s(I15
I21
tp6645
S':punct'
p6646
s(I5
I2
tp6647
S':case'
p6648
sssI59
(dp6649
g3
(dp6650
S'a'
S'0.1'
p6651
sS'p2'
p6652
S'0.2.0.0.2'
p6653
sS'c'
S'0.0.0'
p6654
sS'none1'
p6655
S'0.2.0.0.2.0.0.0'
p6656
sS'f'
S'0.2.0'
p6657
sS'h2'
p6658
S'0.2.0.0.1'
p6659
sS'none0'
p6660
S'0.0.0.0.0'
p6661
sS'o'
S'0'
sS'n'
S'0.0.0.0'
p6662
sS'p'
S'0.0'
p6663
sS'a2'
p6664
S'0.2.0.0'
p6665
sS'c3'
p6666
S'0.2'
p6667
sS'n2'
p6668
S'0.2.0.0.2.0.0'
p6669
sS'r'
S'0.2.0.0.0'
p6670
sS'c4'
p6671
S'0.2.0.0.2.0'
p6672
ssg11
(dp6673
I0
g13
sI1
S'face'
p6674
sI2
S'with'
p6675
sI3
S'rascal'
p6676
sI4
S'and'
p6677
sI5
S'hooligan'
p6678
sI6
S'like'
p6679
sI7
S'the'
p6680
sI8
S'Americans'
p6681
sI9
S','
sI10
S'the'
p6682
sI11
S'Chinese'
p6683
sI12
S'have'
p6684
sI13
S'no'
p6685
sI14
S'choice'
p6686
sI15
S'but'
p6687
sI16
S'to'
p6688
sI17
S'arm'
p6689
sI18
S'themselves'
p6690
sI19
S'.'
ssg23
(dp6691
(g6664
g6658
tp6692
S':op2'
p6693
s(S'a'
S'p'
tp6694
S':ARG1'
p6695
s(S'o'
S'p'
tp6696
S':ARG1'
p6697
s(g6664
S'r'
tp6698
S':op1'
p6699
s(g6666
S'f'
tp6700
S':ARG0'
p6701
s(S'o'
g6666
tp6702
S':ARG1-of'
p6703
s(g6671
g6668
tp6704
S':name'
p6705
s(S'p'
S'c'
tp6706
S':mod'
p6707
s(S'f'
g6664
tp6708
S':ARG0'
p6709
s(g6664
g6652
tp6710
S':example'
p6711
s(S'n'
S'none0'
tp6712
S':op1'
p6713
s(g6652
g6671
tp6714
S':mod'
p6715
s(S'f'
S'p'
tp6716
S':ARG1'
p6717
s(S'c'
S'n'
tp6718
S':name'
p6719
s(g6668
S'none1'
tp6720
S':op1'
p6721
s(g27
S'o'
tp6722
g29
s(S'o'
S'a'
tp6723
S':ARG2'
p6724
ssg40
(dp6725
I0
g13
sI1
VFaced
p6726
sI2
Vwith
p6727
sI3
Vrascals
p6728
sI4
Vand
p6729
sI5
Vhooligans
p6730
sI6
Vlike
p6731
sI7
Vthe
p6732
sI8
VAmericans
p6733
sI9
V,
sI10
Vthe
p6734
sI11
VChinese
p6735
sI12
Vhave
p6736
sI13
Vno
p6737
sI14
Vchoice
p6738
sI15
Vbut
p6739
sI16
Vto
p6740
sI17
Varm
p6741
sI18
Vthemselves
p6742
sI19
V.
ssg51
S'Faced with rascals and hooligans like the Americans, the Chinese have no choice but to arm themselves.'
p6743
sg53
(dp6744
S'a'
(lp6745
S'0.1'
p6746
asg6652
(lp6747
S'0.2.0.0.2'
p6748
asS'c'
(lp6749
S'0.0.0'
p6750
asS'none1'
p6751
(lp6752
S'0.2.0.0.2.0.0.0'
p6753
asS'f'
(lp6754
S'0.2.0'
p6755
asg6658
(lp6756
S'0.2.0.0.1'
p6757
asS'none0'
p6758
(lp6759
S'0.0.0.0.0'
p6760
asS'o'
(lp6761
S'0'
asS'n'
(lp6762
S'0.0.0.0'
p6763
asS'p'
(lp6764
S'0.0'
p6765
asg6664
(lp6766
S'0.2.0.0'
p6767
asg6666
(lp6768
S'0.2'
p6769
asg6668
(lp6770
S'0.2.0.0.2.0.0'
p6771
asS'r'
(lp6772
S'0.2.0.0.0'
p6773
asg6671
(lp6774
S'0.2.0.0.2.0'
p6775
assg68
(dp6776
S'a'
S'arm'
p6777
sg6652
S'person'
p6778
sS'c'
S'country'
p6779
sg6655
S'America'
p6780
sS'f'
S'face'
p6781
sg6658
S'hooligan'
p6782
sg27
g73
sg6660
S'China'
p6783
sS'o'
S'obligate'
p6784
sS'n'
S'name'
p6785
sS'p'
S'person'
p6786
sg6664
S'and'
p6787
sg6666
S'cause'
p6788
sg6668
S'name'
p6789
sS'r'
S'rascal'
p6790
sg6671
S'country'
p6791
ssg77
(dp6792
(I17
I18
tp6793
S':dobj'
p6794
s(I12
I15
tp6795
S':cc'
p6796
s(I3
I2
tp6797
S':case'
p6798
s(I1
I3
tp6799
S':nmod-with'
p6800
s(I12
I1
tp6801
S':advcl'
p6802
s(I12
I11
tp6803
S':nsubj'
p6804
s(I12
I14
tp6805
S':dobj'
p6806
s(I12
I9
tp6807
S':punct'
p6808
s(I17
I11
tp6809
S':nsubj'
p6810
s(I11
I10
tp6811
S':det'
p6812
s(I14
I13
tp6813
S':neg'
p6814
s(I0
I12
tp6815
S':ROOT'
p6816
s(I3
I8
tp6817
S':nmod-like'
p6818
s(I1
I5
tp6819
S':nmod-with'
p6820
s(I12
I17
tp6821
S':conj-but'
p6822
s(I12
I19
tp6823
S':punct'
p6824
s(I8
I7
tp6825
S':det'
p6826
s(I8
I6
tp6827
S':case'
p6828
s(I17
I16
tp6829
S':mark'
p6830
s(I3
I4
tp6831
S':cc'
p6832
s(I3
I5
tp6833
S':conj-and'
p6834
sssI60
(dp6835
g3
(dp6836
S'a'
S'0.0.1'
p6837
sS'c'
S'0'
sS'g3'
p6838
S'0.0.1.0.0'
p6839
sS'g2'
p6840
S'0.0.2.0'
p6841
sS'g'
S'0.0.2'
p6842
sS'i'
S'0.0.0'
p6843
sS'h'
S'0.0'
p6844
sS'n'
S'0.0.1.1'
p6845
sS'r'
S'0.0.1.0'
p6846
sS'w'
S'0.0.1.0.0.0'
p6847
ssg11
(dp6848
I0
g13
sI1
S'on'
p6849
sI2
S'the'
p6850
sI3
S'one'
p6851
sI4
S'hand'
p6852
sI5
S','
sI6
S'it'
p6853
sI7
S'help'
p6854
sI8
S'the'
p6855
sI9
S'government'
p6856
sI10
S'to'
p6857
sI11
S'reduce'
p6858
sI12
S'and'
p6859
sI13
S'narrow'
p6860
sI14
S'the'
p6861
sI15
S'gap'
p6862
sI16
S'of'
p6863
sI17
S'wealth'
p6864
sI18
S';'
ssg23
(dp6865
(S'h'
S'a'
tp6866
S':ARG1'
p6867
s(S'c'
S'h'
tp6868
S':ARG1'
p6869
s(S'r'
S'g'
tp6870
S':ARG0'
p6871
s(S'h'
S'i'
tp6872
S':ARG0'
p6873
s(S'r'
g6838
tp6874
S':ARG1'
p6875
s(S'n'
S'g'
tp6876
S':ARG0'
p6877
s(g6838
S'w'
tp6878
S':mod'
p6879
s(S'n'
S'g3'
tp6880
S':ARG1'
p6881
s(S'a'
S'n'
tp6882
S':op2'
p6883
s(S'h'
S'g'
tp6884
S':ARG2'
p6885
s(S'a'
S'r'
tp6886
S':op1'
p6887
s(S'g'
g6840
tp6888
S':ARG0-of'
p6889
s(g27
S'c'
tp6890
g29
ssg40
(dp6891
I0
g13
sI1
VOn
p6892
sI2
Vthe
p6893
sI3
Vone
p6894
sI4
Vhand
p6895
sI5
V,
sI6
Vit
p6896
sI7
Vhelps
p6897
sI8
Vthe
p6898
sI9
Vgovernment
p6899
sI10
Vto
p6900
sI11
Vreduce
p6901
sI12
Vand
p6902
sI13
Vnarrow
p6903
sI14
Vthe
p6904
sI15
Vgap
p6905
sI16
Vof
p6906
sI17
Vwealth
p6907
sI18
V;
ssg51
S'On the one hand, it helps the government to reduce and narrow the gap of wealth;'
p6908
sg53
(dp6909
S'a'
(lp6910
S'0.0.1'
p6911
asS'c'
(lp6912
S'0'
asg6838
(lp6913
S'0.0.1.0.0'
p6914
asg6840
(lp6915
S'0.0.2.0'
p6916
asS'g'
(lp6917
S'0.0.2'
p6918
asS'i'
(lp6919
S'0.0.0'
p6920
asS'h'
(lp6921
S'0.0'
p6922
asS'n'
(lp6923
S'0.0.1.1'
p6924
asS'r'
(lp6925
S'0.0.1.0'
p6926
asS'w'
(lp6927
S'0.0.1.0.0.0'
p6928
assg68
(dp6929
S'a'
S'and'
p6930
sS'c'
S'contrast'
p6931
sg6838
S'gap'
p6932
sg6840
S'govern'
p6933
sS'g'
S'government-organization'
p6934
sS'i'
S'it'
p6935
sS'h'
S'help'
p6936
sg27
g73
sS'n'
S'narrow'
p6937
sS'r'
S'reduce'
p6938
sS'w'
S'wealth'
p6939
ssg77
(dp6940
(I11
I10
tp6941
S':mark'
p6942
s(I7
I13
tp6943
S':xcomp'
p6944
s(I15
I17
tp6945
S':nmod-of'
p6946
s(I11
I15
tp6947
S':dobj'
p6948
s(I11
I12
tp6949
S':cc'
p6950
s(I7
I6
tp6951
S':nsubj'
p6952
s(I11
I9
tp6953
S':nsubj'
p6954
s(I0
I7
tp6955
S':ROOT'
p6956
s(I7
I4
tp6957
S':nmod-on'
p6958
s(I7
I5
tp6959
S':punct'
p6960
s(I7
I18
tp6961
S':punct'
p6962
s(I4
I3
tp6963
S':nummod'
p6964
s(I7
I11
tp6965
S':xcomp'
p6966
s(I4
I2
tp6967
S':det'
p6968
s(I15
I14
tp6969
S':det'
p6970
s(I11
I13
tp6971
S':conj-and'
p6972
s(I4
I1
tp6973
S':case'
p6974
s(I9
I8
tp6975
S':det'
p6976
s(I17
I16
tp6977
S':case'
p6978
s(I7
I9
tp6979
S':dobj'
p6980
sssI61
(dp6981
g3
(dp6982
S'a'
S'0.2'
p6983
sS'c'
S'0.3.1'
p6984
sS'b'
S'0.1'
p6985
sS'g'
S'0'
sS'none0'
p6986
S'0.0'
p6987
sS'm'
S'0.1.0.0'
p6988
sS'l'
S'0.1.0'
p6989
sS'p'
S'0.3'
p6990
sS'u'
S'0.3.0.0'
p6991
sS'b2'
p6992
S'0.3.0'
p6993
sS'm2'
p6994
S'0.3.0.0.0'
p6995
ssg11
(dp6996
I0
g13
sI1
S'if'
p6997
sI2
S'the'
p6998
sI3
S'upper'
p6999
sI4
S'beam'
p7000
sI5
S'be'
p7001
sI6
S'correctly'
p7002
sI7
S'place'
p7003
sI8
S','
sI9
S'the'
p7004
sI10
S'lower'
p7005
sI11
S'beam'
p7006
sI12
S'will'
p7007
sI13
S'not'
p7008
sI14
S'go'
p7009
sI15
S'awry'
p7010
sI16
S'.'
ssg23
(dp7011
(g6992
S'u'
tp7012
S':mod'
p7013
s(S'l'
S'm'
tp7014
S':degree'
p7015
s(g27
S'g'
tp7016
g29
s(S'g'
S'none0'
tp7017
S':polarity'
p7018
s(S'b'
S'l'
tp7019
S':mod'
p7020
s(S'p'
S'c'
tp7021
S':manner'
p7022
s(S'u'
g6994
tp7023
S':degree'
p7024
s(S'g'
S'a'
tp7025
S':ARG4'
p7026
s(S'g'
S'b'
tp7027
S':ARG1'
p7028
s(S'p'
g6992
tp7029
S':ARG1'
p7030
s(S'g'
S'p'
tp7031
S':condition'
p7032
ssg40
(dp7033
I0
g13
sI1
VIf
p7034
sI2
Vthe
p7035
sI3
Vupper
p7036
sI4
Vbeams
p7037
sI5
Vare
p7038
sI6
Vcorrectly
p7039
sI7
Vplaced
p7040
sI8
V,
sI9
Vthe
p7041
sI10
Vlower
p7042
sI11
Vbeams
p7043
sI12
Vwill
p7044
sI13
Vnot
p7045
sI14
Vgo
p7046
sI15
Vawry
p7047
sI16
V.
ssg51
S'If the upper beams are correctly placed, the lower beams will not go awry.'
p7048
sg53
(dp7049
S'a'
(lp7050
S'0.2'
p7051
asS'c'
(lp7052
S'0.3.1'
p7053
asS'b'
(lp7054
S'0.1'
p7055
asS'g'
(lp7056
S'0'
asS'none0'
p7057
(lp7058
S'0.0'
p7059
asS'm'
(lp7060
S'0.1.0.0'
p7061
asS'l'
(lp7062
S'0.1.0'
p7063
asS'p'
(lp7064
S'0.3'
p7065
asS'u'
(lp7066
S'0.3.0.0'
p7067
asg6992
(lp7068
S'0.3.0'
p7069
asg6994
(lp7070
S'0.3.0.0.0'
p7071
assg68
(dp7072
S'a'
S'awry'
p7073
sS'c'
S'correct'
p7074
sS'b'
S'beam'
p7075
sS'g'
S'go'
p7076
sg6986
S'-'
sg27
g73
sS'm'
S'more'
p7077
sS'l'
S'low'
p7078
sS'p'
S'place'
p7079
sS'u'
S'up'
p7080
sg6992
S'beam'
p7081
sg6994
S'more'
p7082
ssg77
(dp7083
(I14
I11
tp7084
S':nsubj'
p7085
s(I11
I10
tp7086
S':amod'
p7087
s(I14
I16
tp7088
S':punct'
p7089
s(I7
I1
tp7090
S':mark'
p7091
s(I0
I14
tp7092
S':ROOT'
p7093
s(I7
I6
tp7094
S':advmod'
p7095
s(I11
I9
tp7096
S':det'
p7097
s(I14
I7
tp7098
S':advcl'
p7099
s(I14
I13
tp7100
S':neg'
p7101
s(I7
I4
tp7102
S':nsubjpass'
p7103
s(I14
I12
tp7104
S':aux'
p7105
s(I7
I5
tp7106
S':auxpass'
p7107
s(I14
I15
tp7108
S':advmod'
p7109
s(I4
I3
tp7110
S':amod'
p7111
s(I4
I2
tp7112
S':det'
p7113
s(I14
I8
tp7114
S':punct'
p7115
sssI62
(dp7116
g3
(dp7117
S'a'
S'0.0'
p7118
sS'c'
S'0'
sS'e'
S'0.1'
p7119
sS'd'
S'0.1.2'
p7120
sS'g'
S'0.1.1.0'
p7121
sS'h'
S'0.0.0'
p7122
sS't2'
p7123
S'0.1.1'
p7124
sS'm'
S'0.1.1.0.0'
p7125
sS'p'
S'0.1.0'
p7126
sS's'
S'0.1.2.0'
p7127
sS'r'
S'0.0.1.0'
p7128
sS't'
S'0.0.1'
p7129
sS'm2'
p7130
S'0.2'
p7131
sS'c3'
p7132
S'0.0.1.1'
p7133
sS'c2'
p7134
S'0.0.0.0'
p7135
ssg11
(dp7136
I0
g13
sI1
S'meanwhile'
p7137
sI2
S','
sI3
S'the'
p7138
sI4
S'crowded'
p7139
sI5
S'highway'
p7140
sI6
S'and'
p7141
sI7
S'complicated'
p7142
sI8
S'road'
p7143
sI9
S'traffic'
p7144
sI10
S'cause'
p7145
sI11
S'people'
p7146
sI12
S'to'
p7147
sI13
S'have'
p7148
sI14
S'greater'
p7149
sI15
S'expectation'
p7150
sI16
S'in'
p7151
sI17
S'the'
p7152
sI18
S'development'
p7153
sI19
S'of'
p7154
sI20
S'the'
p7155
sI21
S'subway'
p7156
sI22
S'.'
ssg23
(dp7157
(S'a'
S't'
tp7158
S':op2'
p7159
s(S'e'
S'd'
tp7160
S':topic'
p7161
s(S'd'
S's'
tp7162
S':ARG1'
p7163
s(S'e'
S'p'
tp7164
S':ARG0'
p7165
s(g7123
S'g'
tp7166
S':mod'
p7167
s(S'c'
S'e'
tp7168
S':ARG1'
p7169
s(S'c'
g7130
tp7170
S':time'
p7171
s(S'c'
S'a'
tp7172
S':ARG0'
p7173
s(S'e'
g7123
tp7174
S':ARG1'
p7175
s(S'a'
S'h'
tp7176
S':op1'
p7177
s(S'g'
S'm'
tp7178
S':degree'
p7179
s(g27
S'c'
tp7180
g29
s(S'h'
g7134
tp7181
S':ARG1-of'
p7182
s(S't'
g7132
tp7183
S':ARG1-of'
p7184
s(S't'
S'r'
tp7185
S':mod'
p7186
ssg40
(dp7187
I0
g13
sI1
VMeanwhile
p7188
sI2
V,
sI3
Vthe
p7189
sI4
Vcrowded
p7190
sI5
Vhighways
p7191
sI6
Vand
p7192
sI7
Vcomplicated
p7193
sI8
Vroad
p7194
sI9
Vtraffic
p7195
sI10
Vcause
p7196
sI11
Vpeople
p7197
sI12
Vto
p7198
sI13
Vhave
p7199
sI14
Vgreater
p7200
sI15
Vexpectations
p7201
sI16
Vin
p7202
sI17
Vthe
p7203
sI18
Vdevelopment
p7204
sI19
Vof
p7205
sI20
Vthe
p7206
sI21
Vsubway
p7207
sI22
V.
ssg51
S'Meanwhile, the crowded highways and complicated road traffic cause people to have greater expectations in the development of the subway.'
p7208
sg53
(dp7209
S'a'
(lp7210
S'0.0'
p7211
asS'c'
(lp7212
S'0'
asS'e'
(lp7213
S'0.1'
p7214
asS'd'
(lp7215
S'0.1.2'
p7216
asS'g'
(lp7217
S'0.1.1.0'
p7218
asS'h'
(lp7219
S'0.0.0'
p7220
asg7123
(lp7221
S'0.1.1'
p7222
asS'm'
(lp7223
S'0.1.1.0.0'
p7224
asS'p'
(lp7225
S'0.1.0'
p7226
asS's'
(lp7227
S'0.1.2.0'
p7228
asS'r'
(lp7229
S'0.0.1.0'
p7230
asS't'
(lp7231
S'0.0.1'
p7232
asg7130
(lp7233
S'0.2'
p7234
asg7132
(lp7235
S'0.0.1.1'
p7236
asg7134
(lp7237
S'0.0.0.0'
p7238
assg68
(dp7239
S'a'
S'and'
p7240
sS'c'
S'cause'
p7241
sS'e'
S'expect'
p7242
sS'd'
S'develop'
p7243
sS'g'
S'great'
p7244
sS'h'
S'highway'
p7245
sg27
g73
sg7123
S'thing'
p7246
sS'm'
S'more'
p7247
sS'p'
S'person'
p7248
sS's'
S'subway'
p7249
sS'r'
S'road'
p7250
sS't'
S'traffic'
p7251
sg7130
S'meanwhile'
p7252
sg7132
S'complicate'
p7253
sg7134
S'crowd'
p7254
ssg77
(dp7255
(I5
I9
tp7256
S':conj-and'
p7257
s(I10
I11
tp7258
S':dobj'
p7259
s(I5
I6
tp7260
S':cc'
p7261
s(I9
I8
tp7262
S':compound'
p7263
s(I0
I10
tp7264
S':ROOT'
p7265
s(I18
I21
tp7266
S':nmod-of'
p7267
s(I21
I20
tp7268
S':det'
p7269
s(I18
I16
tp7270
S':case'
p7271
s(I15
I18
tp7272
S':nmod-in'
p7273
s(I10
I22
tp7274
S':punct'
p7275
s(I10
I9
tp7276
S':nsubj'
p7277
s(I9
I7
tp7278
S':amod'
p7279
s(I5
I4
tp7280
S':amod'
p7281
s(I10
I13
tp7282
S':xcomp'
p7283
s(I13
I15
tp7284
S':dobj'
p7285
s(I13
I12
tp7286
S':mark'
p7287
s(I18
I17
tp7288
S':det'
p7289
s(I10
I1
tp7290
S':advmod'
p7291
s(I15
I14
tp7292
S':amod'
p7293
s(I5
I3
tp7294
S':det'
p7295
s(I10
I5
tp7296
S':nsubj'
p7297
s(I21
I19
tp7298
S':case'
p7299
s(I13
I11
tp7300
S':nsubj'
p7301
s(I10
I2
tp7302
S':punct'
p7303
sssI63
(dp7304
g3
(dp7305
S'h'
S'0.1'
p7306
sS't2'
p7307
S'0.1.0'
p7308
sS's'
S'0'
sS'r'
S'0.2'
p7309
sS't'
S'0.0'
p7310
sS'y'
S'0.2.0'
p7311
ssg11
(dp7312
I0
g13
sI1
S'that'
p7313
sI2
S'be'
p7314
sI3
S'a'
sI4
S'terrible'
p7315
sI5
S'small'
p7316
sI6
S'horse'
p7317
sI7
S'for'
p7318
sI8
S'you'
p7319
sI9
S'to'
p7320
sI10
S'ride'
p7321
sI11
S'.'
ssg23
(dp7322
(S'r'
S'h'
tp7323
S':ARG1'
p7324
s(g27
S's'
tp7325
g29
s(S'r'
S'y'
tp7326
S':ARG0'
p7327
s(S's'
S'r'
tp7328
S':beneficiary'
p7329
s(S's'
S'h'
tp7330
S':domain'
p7331
s(S's'
S't'
tp7332
S':degree'
p7333
s(S'h'
g7307
tp7334
S':mod'
p7335
ssg40
(dp7336
I0
g13
sI1
Vthat
p7337
sI2
V's
p7338
sI3
Va
sI4
Vterribly
p7339
sI5
Vsmall
p7340
sI6
Vhorse
p7341
sI7
Vfor
p7342
sI8
Vyou
p7343
sI9
Vto
p7344
sI10
Vride
p7345
sI11
V.
ssg51
S"that's a terribly small horse for you to ride ."
p7346
sg53
(dp7347
S'h'
(lp7348
S'0.1'
p7349
asg7307
(lp7350
S'0.1.0'
p7351
asS's'
(lp7352
S'0'
asS'r'
(lp7353
S'0.2'
p7354
asS't'
(lp7355
S'0.0'
p7356
asS'y'
(lp7357
S'0.2.0'
p7358
assg68
(dp7359
S'h'
S'horse'
p7360
sg27
g73
sg7307
S'that'
p7361
sS's'
S'small'
p7362
sS'r'
S'ride'
p7363
sS't'
S'terribly'
p7364
sS'y'
S'you'
p7365
ssg77
(dp7366
(I5
I4
tp7367
S':advmod'
p7368
s(I5
I10
tp7369
S':xcomp'
p7370
s(I6
I11
tp7371
S':punct'
p7372
s(I6
I1
tp7373
S':nsubj'
p7374
s(I10
I9
tp7375
S':mark'
p7376
s(I6
I3
tp7377
S':det'
p7378
s(I0
I6
tp7379
S':root'
p7380
s(I6
I2
tp7381
S':cop'
p7382
s(I5
I8
tp7383
S':nmod-for'
p7384
s(I8
I7
tp7385
S':case'
p7386
s(I6
I5
tp7387
S':amod'
p7388
sssI64
(dp7389
g3
(dp7390
S'b'
S'0.0.0.1'
p7391
sS'l'
S'0.0'
p7392
sS's'
S'0.0.0.0'
p7393
sS'r'
S'0'
sS't'
S'0.0.0'
p7394
sS'y'
S'0.1'
p7395
ssg11
(dp7396
I0
g13
sI1
S'why'
p7397
sI2
S'do'
p7398
sI3
S'not'
p7399
sI4
S'you'
p7400
sI5
S'look'
p7401
sI6
S'at'
p7402
sI7
S'some'
p7403
sI8
S'of'
p7404
sI9
S'the'
p7405
sI10
S'toy'
p7406
sI11
S'in'
p7407
sI12
S'the'
p7408
sI13
S'basket'
p7409
sI14
S'.'
ssg23
(dp7410
(S'l'
S'y'
tp7411
S':ARG0'
p7412
s(g27
S'r'
tp7413
g29
s(S't'
S'b'
tp7414
S':location'
p7415
s(S'r'
S'y'
tp7416
S':ARG2'
p7417
s(S'r'
S'l'
tp7418
S':ARG1'
p7419
s(S't'
S's'
tp7420
S':mod'
p7421
s(S'l'
S't'
tp7422
S':ARG1'
p7423
ssg40
(dp7424
I0
g13
sI1
Vwhy
p7425
sI2
Vdo
p7426
sI3
Vn't
p7427
sI4
Vyou
p7428
sI5
Vlook
p7429
sI6
Vat
p7430
sI7
Vsome
p7431
sI8
Vof
p7432
sI9
Vthe
p7433
sI10
Vtoys
p7434
sI11
Vin
p7435
sI12
Vthe
p7436
sI13
Vbasket
p7437
sI14
V.
ssg51
S"why don't you look at some of the toys in the basket ."
p7438
sg53
(dp7439
S'b'
(lp7440
S'0.0.0.1'
p7441
asS'l'
(lp7442
S'0.0'
p7443
asS's'
(lp7444
S'0.0.0.0'
p7445
asS'r'
(lp7446
S'0'
asS't'
(lp7447
S'0.0.0'
p7448
asS'y'
(lp7449
S'0.1'
p7450
assg68
(dp7451
S'b'
S'basket'
p7452
sg27
g73
sS'l'
S'look'
p7453
sS's'
S'some'
p7454
sS'r'
S'recommend'
p7455
sS't'
S'toy'
p7456
sS'y'
S'you'
p7457
ssg77
(dp7458
(I5
I4
tp7459
S':nsubj'
p7460
s(I5
I10
tp7461
S':nmod-at'
p7462
s(I10
I7
tp7463
S':det-qmod'
p7464
s(I7
I8
tp7465
S':mwe'
p7466
s(I10
I13
tp7467
S':nmod-in'
p7468
s(I10
I6
tp7469
S':case'
p7470
s(I13
I12
tp7471
S':det'
p7472
s(I5
I14
tp7473
S':punct'
p7474
s(I0
I5
tp7475
S':root'
p7476
s(I5
I1
tp7477
S':advmod'
p7478
s(I13
I11
tp7479
S':case'
p7480
s(I5
I2
tp7481
S':aux'
p7482
s(I10
I9
tp7483
S':det'
p7484
s(I5
I3
tp7485
S':neg'
p7486
sssI65
(dp7487
g3
(dp7488
S'g'
S'0.1'
p7489
sS'none0'
p7490
S'0.1.0.0'
p7491
sS'h2'
p7492
S'0.1.0'
p7493
sS'h'
S'0.0.0'
p7494
sS'm'
S'0'
sS'r'
S'0.0.1'
p7495
sS'w2'
p7496
S'0.0.1.0'
p7497
sS'w'
S'0.0'
p7498
sS'y'
S'0.0.1.0.0'
p7499
ssg11
(dp7500
I0
g13
sI1
S'do'
p7501
sI2
S'he'
p7502
sI3
S'walk'
p7503
sI4
S'like'
p7504
sI5
S'you'
p7505
sI6
S'or'
p7506
sI7
S'do'
p7507
sI8
S'he'
p7508
sI9
S'go'
p7509
sI10
S'hop'
p7510
sI11
S'hop'
p7511
sI12
S'hop'
p7512
sI13
S'?'
ssg23
(dp7513
(S'g'
S'h'
tp7514
S':ARG0'
p7515
s(S'g'
g7492
tp7516
S':ARG1'
p7517
s(S'm'
S'g'
tp7518
S':ARG2'
p7519
s(g27
S'm'
tp7520
g29
s(S'w'
S'r'
tp7521
S':ARG1-of'
p7522
s(S'w'
S'h'
tp7523
S':ARG0'
p7524
s(g7492
S'none0'
tp7525
S':mode'
p7526
s(S'm'
S'w'
tp7527
S':ARG1'
p7528
s(g7496
S'y'
tp7529
S':ARG0'
p7530
s(S'r'
g7496
tp7531
S':ARG2'
p7532
ssg40
(dp7533
I0
g13
sI1
Vdoes
p7534
sI2
Vhe
p7535
sI3
Vwalk
p7536
sI4
Vlike
p7537
sI5
Vyou
p7538
sI6
Vor
p7539
sI7
Vdoes
p7540
sI8
Vhe
p7541
sI9
Vgo
p7542
sI10
Vhop
p7543
sI11
Vhop
p7544
sI12
Vhop
p7545
sI13
V?
ssg51
S'does he walk like you or does he go hop hop hop ?'
p7546
sg53
(dp7547
S'g'
(lp7548
S'0.1'
p7549
asS'none0'
p7550
(lp7551
S'0.1.0.0'
p7552
asg7492
(lp7553
S'0.1.0'
p7554
asS'h'
(lp7555
S'0.0.0'
p7556
asS'm'
(lp7557
S'0'
asS'r'
(lp7558
S'0.0.1'
p7559
asg7496
(lp7560
S'0.0.1.0'
p7561
asS'w'
(lp7562
S'0.0'
p7563
asS'y'
(lp7564
S'0.0.1.0.0'
p7565
assg68
(dp7566
S'g'
S'go'
p7567
sg7490
S'expressive'
p7568
sg7492
S'hop'
p7569
sS'h'
S'he'
p7570
sg27
g73
sS'm'
S'multiple-choice'
p7571
sS'r'
S'resemble'
p7572
sg7496
S'walk'
p7573
sS'w'
S'walk'
p7574
sS'y'
S'you'
p7575
ssg77
(dp7576
(I5
I4
tp7577
S':case'
p7578
s(I10
I11
tp7579
S':goeswith'
p7580
s(I3
I13
tp7581
S':punct'
p7582
s(I9
I8
tp7583
S':nsubj'
p7584
s(I3
I1
tp7585
S':aux'
p7586
s(I3
I2
tp7587
S':nsubj'
p7588
s(I9
I10
tp7589
S':advmod'
p7590
s(I3
I9
tp7591
S':conj-or'
p7592
s(I3
I6
tp7593
S':cc'
p7594
s(I0
I3
tp7595
S':root'
p7596
s(I9
I7
tp7597
S':aux'
p7598
s(I11
I12
tp7599
S':goeswith'
p7600
s(I3
I5
tp7601
S':nmod-like'
p7602
sssI66
(dp7603
g3
(dp7604
S'i'
S'0.0.1'
p7605
sS'l'
S'0.1'
p7606
sS'o'
S'0.1.0'
p7607
sS'p'
S'0'
sS's'
S'0.0'
p7608
sS'w'
S'0.1.0.0'
p7609
sS'y'
S'0.0.0'
p7610
sS'o2'
p7611
S'0.1.0.0.0'
p7612
ssg11
(dp7613
I0
g13
sI1
S'if'
p7614
sI2
S'you'
p7615
sI3
S'look'
p7616
sI4
S'out'
p7617
sI5
S'the'
p7618
sI6
S'other'
p7619
sI7
S'window'
p7620
sI8
S'maybe'
p7621
sI9
S'you'
p7622
sI10
S'will'
p7623
sI11
S'see'
p7624
sI12
S'it'
p7625
sI13
S'.'
ssg23
(dp7626
(S'p'
S's'
tp7627
S':ARG1'
p7628
s(g27
S'p'
tp7629
g29
s(S'l'
S'y'
tp7630
S':ARG0'
p7631
s(S'l'
S'o'
tp7632
S':direction'
p7633
s(S's'
S'y'
tp7634
S':ARG0'
p7635
s(S'w'
g7611
tp7636
S':mod'
p7637
s(S's'
S'i'
tp7638
S':ARG1'
p7639
s(S'p'
S'l'
tp7640
S':condition'
p7641
s(S'o'
S'w'
tp7642
S':op1'
p7643
ssg40
(dp7644
I0
g13
sI1
Vif
p7645
sI2
Vyou
p7646
sI3
Vlook
p7647
sI4
Vout
p7648
sI5
Vthe
p7649
sI6
Vother
p7650
sI7
Vwindow
p7651
sI8
Vmaybe
p7652
sI9
Vyou
p7653
sI10
V'll
p7654
sI11
Vsee
p7655
sI12
Vit
p7656
sI13
V.
ssg51
S"if you look out the other window maybe you'll see it ."
p7657
sg53
(dp7658
S'i'
(lp7659
S'0.0.1'
p7660
asS'l'
(lp7661
S'0.1'
p7662
asS'o'
(lp7663
S'0.1.0'
p7664
asS'p'
(lp7665
S'0'
asS's'
(lp7666
S'0.0'
p7667
asS'w'
(lp7668
S'0.1.0.0'
p7669
asS'y'
(lp7670
S'0.0.0'
p7671
asg7611
(lp7672
S'0.1.0.0.0'
p7673
assg68
(dp7674
S'i'
S'it'
p7675
sg27
g73
sS'l'
S'look'
p7676
sS'o'
S'out'
p7677
sS'p'
S'possible'
p7678
sS's'
S'see'
p7679
sS'w'
S'window'
p7680
sS'y'
S'you'
p7681
sg7611
S'other'
p7682
ssg77
(dp7683
(I3
I8
tp7684
S':discourse'
p7685
s(I3
I2
tp7686
S':nsubj'
p7687
s(I11
I9
tp7688
S':nsubj'
p7689
s(I3
I13
tp7690
S':punct'
p7691
s(I7
I6
tp7692
S':amod'
p7693
s(I3
I1
tp7694
S':mark'
p7695
s(I11
I3
tp7696
S':advcl'
p7697
s(I7
I4
tp7698
S':case'
p7699
s(I0
I11
tp7700
S':root'
p7701
s(I7
I5
tp7702
S':det'
p7703
s(I11
I10
tp7704
S':aux'
p7705
s(I3
I7
tp7706
S':nmod-out'
p7707
s(I11
I12
tp7708
S':dobj'
p7709
sssI67
(dp7710
g3
(dp7711
S'g'
S'0.1.3'
p7712
sS'i'
S'0.0'
p7713
sS'h'
S'0.1'
p7714
sS't2'
p7715
S'0.1.1.0'
p7716
sS'l'
S'0.1.0'
p7717
sS'o'
S'0.1.1'
p7718
sS't3'
p7719
S'0.1.2'
p7720
sS't'
S'0'
sS'w'
S'0.1.3.0'
p7721
ssg11
(dp7722
I0
g13
sI1
S'I'
sI2
S'think'
p7723
sI3
S'that'
p7724
sI4
S'one'
p7725
sI5
S'be'
p7726
sI6
S'too'
p7727
sI7
S'large'
p7728
sI8
S'to'
p7729
sI9
S'go'
p7730
sI10
S'in'
p7731
sI11
S'the'
p7732
sI12
S'window'
p7733
sI13
S'.'
ssg23
(dp7734
(S'h'
g7719
tp7735
S':ARG3'
p7736
s(S'h'
S'o'
tp7737
S':ARG2'
p7738
s(S'o'
g7715
tp7739
S':mod'
p7740
s(S't'
S'i'
tp7741
S':ARG0'
p7742
s(S'h'
S'l'
tp7743
S':ARG1'
p7744
s(S't'
S'h'
tp7745
S':ARG1'
p7746
s(g27
S't'
tp7747
g29
s(S'g'
S'w'
tp7748
S':ARG4'
p7749
s(S'h'
S'g'
tp7750
S':ARG5'
p7751
s(S'g'
S'o'
tp7752
S':ARG1'
p7753
ssg40
(dp7754
I0
g13
sI1
VI
sI2
Vthink
p7755
sI3
Vthat
p7756
sI4
Vone
p7757
sI5
V's
p7758
sI6
Vtoo
p7759
sI7
Vlarge
p7760
sI8
Vto
p7761
sI9
Vgo
p7762
sI10
Vin
p7763
sI11
Vthe
p7764
sI12
Vwindow
p7765
sI13
V.
ssg51
S"I think that one's too large to go in the window ."
p7766
sg53
(dp7767
S'g'
(lp7768
S'0.1.3'
p7769
asS'i'
(lp7770
S'0.0'
p7771
asS'h'
(lp7772
S'0.1'
p7773
asg7715
(lp7774
S'0.1.1.0'
p7775
asS'l'
(lp7776
S'0.1.0'
p7777
asS'o'
(lp7778
S'0.1.1'
p7779
asg7719
(lp7780
S'0.1.2'
p7781
asS't'
(lp7782
S'0'
asS'w'
(lp7783
S'0.1.3.0'
p7784
assg68
(dp7785
S'g'
S'go'
p7786
sS'i'
S'i'
sS'h'
S'have-degree'
p7787
sg27
g73
sg7715
S'that'
p7788
sS'l'
S'large'
p7789
sS'o'
S'one'
p7790
sg7719
S'too'
p7791
sS't'
S'think'
p7792
sS'w'
S'window'
p7793
ssg77
(dp7794
(I2
I7
tp7795
S':ccomp'
p7796
s(I12
I11
tp7797
S':det'
p7798
s(I7
I6
tp7799
S':advmod'
p7800
s(I2
I1
tp7801
S':nsubj'
p7802
s(I7
I4
tp7803
S':nsubj'
p7804
s(I2
I13
tp7805
S':punct'
p7806
s(I7
I5
tp7807
S':cop'
p7808
s(I4
I3
tp7809
S':det'
p7810
s(I12
I10
tp7811
S':case'
p7812
s(I9
I8
tp7813
S':mark'
p7814
s(I0
I2
tp7815
S':root'
p7816
s(I9
I12
tp7817
S':nmod-in'
p7818
s(I7
I9
tp7819
S':advcl'
p7820
sssI68
(dp7821
g3
(dp7822
S'p2'
p7823
S'0.1.0.0'
p7824
sS'p'
S'0.0.0.0'
p7825
sS'h'
S'0.1.0'
p7826
sS'k'
S'0.0'
p7827
sS'i2'
p7828
S'0'
sS'k3'
p7829
S'0.1'
p7830
sS'k2'
p7831
S'0.0.0'
p7832
ssg11
(dp7833
I0
g13
sI1
S'not'
p7834
sI2
S'the'
p7835
sI3
S'kind'
p7836
sI4
S'you'
p7837
sI5
S'hit'
p7838
sI6
S'but'
p7839
sI7
S'the'
p7840
sI8
S'kind'
p7841
sI9
S'you'
p7842
sI10
S'kick'
p7843
sI11
S'.'
ssg23
(dp7844
(g7828
g7829
tp7845
S':ARG2'
p7846
s(g7828
S'k'
tp7847
S':ARG1'
p7848
s(g27
g7828
tp7849
g29
s(S'k'
g7831
tp7850
S':ARG1-of'
p7851
s(g7829
S'h'
tp7852
S':ARG1-of'
p7853
s(S'h'
g7823
tp7854
S':ARG0'
p7855
s(g7831
S'p'
tp7856
S':ARG0'
p7857
ssg40
(dp7858
I0
g13
sI1
Vnot
p7859
sI2
Vthe
p7860
sI3
Vkind
p7861
sI4
Vyou
p7862
sI5
Vhit
p7863
sI6
Vbut
p7864
sI7
Vthe
p7865
sI8
Vkind
p7866
sI9
Vyou
p7867
sI10
Vkick
p7868
sI11
V.
ssg51
S'not the kind you hit but the kind you kick .'
p7869
sg53
(dp7870
g7823
(lp7871
S'0.1.0.0'
p7872
asg7831
(lp7873
S'0.0.0'
p7874
asS'h'
(lp7875
S'0.1.0'
p7876
asS'k'
(lp7877
S'0.0'
p7878
asg7828
(lp7879
S'0'
asg7829
(lp7880
S'0.1'
p7881
asS'p'
(lp7882
S'0.0.0.0'
p7883
assg68
(dp7884
g7823
S'person'
p7885
sS'p'
S'person'
p7886
sS'h'
S'hit'
p7887
sS'k'
S'kind-yy'
p7888
sg7828
S'instead-of'
p7889
sg7829
S'kind-yy'
p7890
sg7831
S'kick'
p7891
sg27
g73
ssg77
(dp7892
(I5
I4
tp7893
S':nsubj'
p7894
s(I8
I7
tp7895
S':det'
p7896
s(I3
I1
tp7897
S':cc-preconj'
p7898
s(I3
I2
tp7899
S':det'
p7900
s(I8
I10
tp7901
S':acl-relcl'
p7902
s(I3
I8
tp7903
S':conj-but'
p7904
s(I3
I11
tp7905
S':punct'
p7906
s(I3
I6
tp7907
S':cc'
p7908
s(I0
I3
tp7909
S':root'
p7910
s(I10
I9
tp7911
S':nsubj'
p7912
s(I3
I5
tp7913
S':acl-relcl'
p7914
sssI69
(dp7915
g3
(dp7916
S'a'
S'0.0'
p7917
sS'h'
S'0.0.1.0'
p7918
sS't2'
p7919
S'0.0.0.1'
p7920
sS'o'
S'0.0.0.2'
p7921
sS's'
S'0.0.1'
p7922
sS'r'
S'0'
sS't'
S'0.0.0'
p7923
sS'y'
S'0.0.0.0'
p7924
ssg11
(dp7925
I0
g13
sI1
S'why'
p7926
sI2
S'do'
p7927
sI3
S'not'
p7928
sI4
S'you'
p7929
sI5
S'take'
p7930
sI6
S'that'
p7931
sI7
S'over'
p7932
sI8
S'and'
p7933
sI9
S'show'
p7934
sI10
S'it'
p7935
sI11
S'to'
p7936
sI12
S'him'
p7937
sI13
S'.'
ssg23
(dp7938
(S't'
S'o'
tp7939
S':direction'
p7940
s(S'a'
S't'
tp7941
S':op1'
p7942
s(S's'
S't2'
tp7943
S':ARG1'
p7944
s(S's'
S'y'
tp7945
S':ARG0'
p7946
s(g27
S'r'
tp7947
g29
s(S'a'
S's'
tp7948
S':op2'
p7949
s(S's'
S'h'
tp7950
S':ARG2'
p7951
s(S'r'
S'a'
tp7952
S':ARG1'
p7953
s(S't'
g7919
tp7954
S':ARG1'
p7955
s(S't'
S'y'
tp7956
S':ARG0'
p7957
ssg40
(dp7958
I0
g13
sI1
Vwhy
p7959
sI2
Vdo
p7960
sI3
Vn't
p7961
sI4
Vyou
p7962
sI5
Vtake
p7963
sI6
Vthat
p7964
sI7
Vover
p7965
sI8
Vand
p7966
sI9
Vshow
p7967
sI10
Vit
p7968
sI11
Vto
p7969
sI12
Vhim
p7970
sI13
V.
ssg51
S"why don't you take that over and show it to him ."
p7971
sg53
(dp7972
S'a'
(lp7973
S'0.0'
p7974
asS'h'
(lp7975
S'0.0.1.0'
p7976
asg7919
(lp7977
S'0.0.0.1'
p7978
asS'o'
(lp7979
S'0.0.0.2'
p7980
asS's'
(lp7981
S'0.0.1'
p7982
asS'r'
(lp7983
S'0'
asS't'
(lp7984
S'0.0.0'
p7985
asS'y'
(lp7986
S'0.0.0.0'
p7987
assg68
(dp7988
S'a'
S'and'
p7989
sS'h'
S'he'
p7990
sg27
g73
sg7919
S'that'
p7991
sS'o'
S'over'
p7992
sS's'
S'show'
p7993
sS'r'
S'recommend'
p7994
sS't'
S'take'
p7995
sS'y'
S'you'
p7996
ssg77
(dp7997
(I5
I9
tp7998
S':conj-and'
p7999
s(I5
I4
tp8000
S':nsubj'
p8001
s(I5
I6
tp8002
S':dobj'
p8003
s(I5
I7
tp8004
S':advmod'
p8005
s(I5
I13
tp8006
S':punct'
p8007
s(I9
I10
tp8008
S':dobj'
p8009
s(I0
I5
tp8010
S':root'
p8011
s(I9
I12
tp8012
S':nmod-to'
p8013
s(I12
I11
tp8014
S':case'
p8015
s(I5
I1
tp8016
S':advmod'
p8017
s(I5
I2
tp8018
S':aux'
p8019
s(I5
I8
tp8020
S':cc'
p8021
s(I5
I3
tp8022
S':neg'
p8023
sssI70
(dp8024
g3
(dp8025
S'p2'
p8026
S'0.1.1'
p8027
sS'none1'
p8028
S'0.1.1.0.0'
p8029
sS'g'
S'0'
sS'none0'
p8030
S'0.1.0.0.0'
p8031
sS'i'
S'0.0'
p8032
sS'h'
S'0.1.2'
p8033
sS'l'
S'0.1'
p8034
sS'n'
S'0.1.0.0'
p8035
sS'p'
S'0.1.0'
p8036
sS'n2'
p8037
S'0.1.1.0'
p8038
ssg11
(dp8039
I0
g13
sI1
S'I'
sI2
S'guess'
p8040
sI3
S'Cliffy'
p8041
sI4
S'look'
p8042
sI5
S'at'
p8043
sI6
S'Bozo'
p8044
sI7
S'at'
p8045
sI8
S'her'
p8046
sI9
S'house'
p8047
sI10
S'.'
ssg23
(dp8048
(S'h'
S'p2'
tp8049
S':poss'
p8050
s(S'g'
S'i'
tp8051
S':ARG0'
p8052
s(g27
S'g'
tp8053
g29
s(g8026
g8037
tp8054
S':name'
p8055
s(S'l'
S'p'
tp8056
S':ARG0'
p8057
s(S'n'
S'none0'
tp8058
S':op1'
p8059
s(S'g'
S'l'
tp8060
S':ARG1'
p8061
s(S'l'
S'h'
tp8062
S':location'
p8063
s(g8037
S'none1'
tp8064
S':op1'
p8065
s(S'l'
g8026
tp8066
S':ARG1'
p8067
s(S'p'
S'n'
tp8068
S':name'
p8069
ssg40
(dp8070
I0
g13
sI1
VI
sI2
Vguess
p8071
sI3
VCliffy
p8072
sI4
Vlooks
p8073
sI5
Vat
p8074
sI6
VBozo
p8075
sI7
Vat
p8076
sI8
Vher
p8077
sI9
Vhouse
p8078
sI10
V.
ssg51
S'I guess Cliffy looks at Bozo at her house .'
p8079
sg53
(dp8080
g8026
(lp8081
S'0.1.1'
p8082
asS'none1'
p8083
(lp8084
S'0.1.1.0.0'
p8085
asS'g'
(lp8086
S'0'
asS'none0'
p8087
(lp8088
S'0.1.0.0.0'
p8089
asS'i'
(lp8090
S'0.0'
p8091
asS'h'
(lp8092
S'0.1.2'
p8093
asS'l'
(lp8094
S'0.1'
p8095
asS'n'
(lp8096
S'0.1.0.0'
p8097
asS'p'
(lp8098
S'0.1.0'
p8099
asg8037
(lp8100
S'0.1.1.0'
p8101
assg68
(dp8102
g8026
S'person'
p8103
sg8028
S'Bozo'
p8104
sS'g'
S'guess'
p8105
sg8030
S'Cliffy'
p8106
sS'i'
S'i'
sS'h'
S'house'
p8107
sg27
g73
sS'l'
S'look'
p8108
sS'n'
S'name'
p8109
sS'p'
S'person'
p8110
sg8037
S'name'
p8111
ssg77
(dp8112
(I4
I9
tp8113
S':nmod'
p8114
s(I4
I6
tp8115
S':nmod-at'
p8116
s(I9
I8
tp8117
S':nmod-poss'
p8118
s(I2
I1
tp8119
S':nsubj'
p8120
s(I2
I4
tp8121
S':ccomp'
p8122
s(I4
I3
tp8123
S':nsubj'
p8124
s(I2
I10
tp8125
S':punct'
p8126
s(I0
I2
tp8127
S':root'
p8128
s(I6
I5
tp8129
S':case'
p8130
s(I9
I7
tp8131
S':case'
p8132
sssI71
(dp8133
g3
(dp8134
S'a'
S'0.2'
p8135
sS'b'
S'0.2.1.0'
p8136
sS'e'
S'0.2.0'
p8137
sS'none0'
p8138
S'0.0'
p8139
sS'h'
S'0'
sS'p'
S'0.2.1'
p8140
sS'r'
S'0.3'
p8141
sS'y'
S'0.1'
p8142
ssg11
(dp8143
I0
g13
sI1
S'you'
p8144
sI2
S'do'
p8145
sI3
S'not'
p8146
sI4
S'have'
p8147
sI5
S'anything'
p8148
sI6
S'else'
p8149
sI7
S'to'
p8150
sI8
S'put'
p8151
sI9
S'in'
p8152
sI10
S'the'
p8153
sI11
S'box'
p8154
sI12
S'do'
p8155
sI13
S'you'
p8156
sI14
S'?'
ssg23
(dp8157
(S'h'
S'a'
tp8158
S':ARG1'
p8159
s(S'p'
S'a'
tp8160
S':ARG1'
p8161
s(S'a'
S'p'
tp8162
S':purpose'
p8163
s(S'p'
S'b'
tp8164
S':ARG2'
p8165
s(S'a'
S'e'
tp8166
S':mod'
p8167
s(S'h'
S'y'
tp8168
S':ARG0'
p8169
s(S'h'
S'r'
tp8170
S':ARG1-of'
p8171
s(g27
S'h'
tp8172
g29
s(S'h'
S'none0'
tp8173
S':polarity'
p8174
ssg40
(dp8175
I0
g13
sI1
Vyou
p8176
sI2
Vdo
p8177
sI3
Vn't
p8178
sI4
Vhave
p8179
sI5
Vanything
p8180
sI6
Velse
p8181
sI7
Vto
p8182
sI8
Vput
p8183
sI9
Vin
p8184
sI10
Vthe
p8185
sI11
Vbox
p8186
sI12
Vdo
p8187
sI13
Vyou
p8188
sI14
V?
ssg51
S"you don't have anything else to put in the box do you ?"
p8189
sg53
(dp8190
S'a'
(lp8191
S'0.2'
p8192
asS'b'
(lp8193
S'0.2.1.0'
p8194
asS'e'
(lp8195
S'0.2.0'
p8196
asS'none0'
p8197
(lp8198
S'0.0'
p8199
asS'h'
(lp8200
S'0'
asS'p'
(lp8201
S'0.2.1'
p8202
asS'r'
(lp8203
S'0.3'
p8204
asS'y'
(lp8205
S'0.1'
p8206
assg68
(dp8207
S'a'
S'anything'
p8208
sS'b'
S'box'
p8209
sS'e'
S'else'
p8210
sg8138
S'-'
sS'h'
S'have'
p8211
sg27
g73
sS'p'
S'put'
p8212
sS'r'
S'request-confirmation'
p8213
sS'y'
S'you'
p8214
ssg77
(dp8215
(I11
I10
tp8216
S':det'
p8217
s(I8
I7
tp8218
S':mark'
p8219
s(I4
I5
tp8220
S':dobj'
p8221
s(I8
I11
tp8222
S':nmod-in'
p8223
s(I11
I9
tp8224
S':case'
p8225
s(I4
I14
tp8226
S':punct'
p8227
s(I12
I13
tp8228
S':nsubj'
p8229
s(I5
I6
tp8230
S':dep'
p8231
s(I4
I12
tp8232
S':discourse'
p8233
s(I4
I3
tp8234
S':neg'
p8235
s(I0
I4
tp8236
S':root'
p8237
s(I4
I2
tp8238
S':aux'
p8239
s(I4
I1
tp8240
S':nsubj'
p8241
s(I5
I8
tp8242
S':acl'
p8243
sssI72
(dp8244
g3
(dp8245
S'a'
S'0.0'
p8246
sS'c'
S'0.0.0'
p8247
sS'b'
S'0.0.1.0'
p8248
sS'h'
S'0.0.0.0'
p8249
sS'o'
S'0.0.0.1'
p8250
sS'p'
S'0.0.1'
p8251
sS'r'
S'0'
sS'y'
S'0.1'
p8252
ssg11
(dp8253
I0
g13
sI1
S'why'
p8254
sI2
S'do'
p8255
sI3
S'not'
p8256
sI4
S'you'
p8257
sI5
S'come'
p8258
sI6
S'over'
p8259
sI7
S'here'
p8260
sI8
S'and'
p8261
sI9
S'play'
p8262
sI10
S'with'
p8263
sI11
S'the'
p8264
sI12
S'ball'
p8265
sI13
S'?'
ssg23
(dp8266
(S'r'
S'y'
tp8267
S':ARG2'
p8268
s(S'c'
S'h'
tp8269
S':ARG4'
p8270
s(g27
S'r'
tp8271
g29
s(S'a'
S'p'
tp8272
S':op2'
p8273
s(S'p'
S'b'
tp8274
S':ARG2'
p8275
s(S'r'
S'a'
tp8276
S':ARG1'
p8277
s(S'c'
S'y'
tp8278
S':ARG1'
p8279
s(S'c'
S'o'
tp8280
S':direction'
p8281
s(S'a'
S'c'
tp8282
S':op1'
p8283
ssg40
(dp8284
I0
g13
sI1
Vwhy
p8285
sI2
Vdo
p8286
sI3
Vn't
p8287
sI4
Vyou
p8288
sI5
Vcome
p8289
sI6
Vover
p8290
sI7
Vhere
p8291
sI8
Vand
p8292
sI9
Vplay
p8293
sI10
Vwith
p8294
sI11
Vthe
p8295
sI12
Vball
p8296
sI13
V?
ssg51
S"why don't you come over here and play with the ball ?"
p8297
sg53
(dp8298
S'a'
(lp8299
S'0.0'
p8300
asS'c'
(lp8301
S'0.0.0'
p8302
asS'b'
(lp8303
S'0.0.1.0'
p8304
asS'h'
(lp8305
S'0.0.0.0'
p8306
asS'o'
(lp8307
S'0.0.0.1'
p8308
asS'p'
(lp8309
S'0.0.1'
p8310
asS'r'
(lp8311
S'0'
asS'y'
(lp8312
S'0.1'
p8313
assg68
(dp8314
S'a'
S'and'
p8315
sS'c'
S'come'
p8316
sS'b'
S'ball'
p8317
sS'h'
S'here'
p8318
sg27
g73
sS'o'
S'over'
p8319
sS'p'
S'play'
p8320
sS'r'
S'recommend'
p8321
sS'y'
S'you'
p8322
ssg77
(dp8323
(I5
I9
tp8324
S':conj-and'
p8325
s(I5
I4
tp8326
S':nsubj'
p8327
s(I7
I6
tp8328
S':advmod'
p8329
s(I5
I7
tp8330
S':advmod'
p8331
s(I5
I13
tp8332
S':punct'
p8333
s(I0
I5
tp8334
S':root'
p8335
s(I9
I12
tp8336
S':nmod-with'
p8337
s(I12
I11
tp8338
S':det'
p8339
s(I12
I10
tp8340
S':case'
p8341
s(I5
I1
tp8342
S':advmod'
p8343
s(I5
I2
tp8344
S':aux'
p8345
s(I5
I8
tp8346
S':cc'
p8347
s(I5
I3
tp8348
S':neg'
p8349
sss.